SF:/home/crist/infraware-terminal/terminal-app/src/executor/command.rs
FN:257,_RNCNvMs_NtNtCsgbM7bOyfJDi_18infraware_terminal8executor7commandNtB6_15CommandExecutor12execute_sudo0Ba_
FN:252,_RNCNvMs_NtNtCsgbM7bOyfJDi_18infraware_terminal8executor7commandNtB6_15CommandExecutor16get_command_path0Ba_
FN:148,_RNCNvMs_NtNtCsgbM7bOyfJDi_18infraware_terminal8executor7commandNtB6_15CommandExecutor7execute0Ba_
FN:17,_RNvMNtNtCsgbM7bOyfJDi_18infraware_terminal8executor7commandNtB2_13CommandOutput10is_success
FN:23,_RNvMNtNtCsgbM7bOyfJDi_18infraware_terminal8executor7commandNtB2_13CommandOutput15combined_output
FN:257,_RNvMs_NtNtCsgbM7bOyfJDi_18infraware_terminal8executor7commandNtB4_15CommandExecutor12execute_sudo
FN:243,_RNvMs_NtNtCsgbM7bOyfJDi_18infraware_terminal8executor7commandNtB4_15CommandExecutor14command_exists
FN:249,_RNvMs_NtNtCsgbM7bOyfJDi_18infraware_terminal8executor7commandNtB4_15CommandExecutor16get_command_path
FN:123,_RNvMs_NtNtCsgbM7bOyfJDi_18infraware_terminal8executor7commandNtB4_15CommandExecutor16is_shell_builtin
FN:118,_RNvMs_NtNtCsgbM7bOyfJDi_18infraware_terminal8executor7commandNtB4_15CommandExecutor22is_interactive_command
FN:144,_RNvMs_NtNtCsgbM7bOyfJDi_18infraware_terminal8executor7commandNtB4_15CommandExecutor7execute
FN:252,_RNCNvMs_NtNtCskvicDDTzzc8_18infraware_terminal8executor7commandNtB6_15CommandExecutor16get_command_path0Ba_
FN:23,_RNvMNtNtCskvicDDTzzc8_18infraware_terminal8executor7commandNtB2_13CommandOutput15combined_output
FN:249,_RNvMs_NtNtCskvicDDTzzc8_18infraware_terminal8executor7commandNtB4_15CommandExecutor16get_command_path
FN:17,_RNvMNtNtCskvicDDTzzc8_18infraware_terminal8executor7commandNtB2_13CommandOutput10is_success
FN:257,_RNvMs_NtNtCskvicDDTzzc8_18infraware_terminal8executor7commandNtB4_15CommandExecutor12execute_sudo
FN:243,_RNvMs_NtNtCskvicDDTzzc8_18infraware_terminal8executor7commandNtB4_15CommandExecutor14command_exists
FN:123,_RNvMs_NtNtCskvicDDTzzc8_18infraware_terminal8executor7commandNtB4_15CommandExecutor16is_shell_builtin
FN:118,_RNvMs_NtNtCskvicDDTzzc8_18infraware_terminal8executor7commandNtB4_15CommandExecutor22is_interactive_command
FN:144,_RNvMs_NtNtCskvicDDTzzc8_18infraware_terminal8executor7commandNtB4_15CommandExecutor7execute
FN:257,_RNCNvMs_NtNtCskvicDDTzzc8_18infraware_terminal8executor7commandNtB6_15CommandExecutor12execute_sudo0Ba_
FN:148,_RNCNvMs_NtNtCskvicDDTzzc8_18infraware_terminal8executor7commandNtB6_15CommandExecutor7execute0Ba_
FN:489,_RNCNvNtNtNtCs9VvCb0vlg4r_18infraware_terminal8executor7command5testss_19test_pipe_execution0B9_
FN:286,_RNCNvNtNtNtCs9VvCb0vlg4r_18infraware_terminal8executor7command5testss_19test_simple_command0B9_
FN:331,_RNCNvNtNtNtCs9VvCb0vlg4r_18infraware_terminal8executor7command5testss_22test_command_exit_code0B9_
FN:295,_RNCNvNtNtNtCs9VvCb0vlg4r_18infraware_terminal8executor7command5testss_22test_command_not_found0B9_
FN:517,_RNCNvNtNtNtCs9VvCb0vlg4r_18infraware_terminal8executor7command5testss_23test_redirect_execution0B9_
FN:543,_RNCNvNtNtNtCs9VvCb0vlg4r_18infraware_terminal8executor7command5testss_23test_subshell_execution0B9_
FN:317,_RNCNvNtNtNtCs9VvCb0vlg4r_18infraware_terminal8executor7command5testss_24test_command_with_stderr0B9_
FN:394,_RNCNvNtNtNtCs9VvCb0vlg4r_18infraware_terminal8executor7command5testss_24test_top_command_blocked0B9_
FN:532,_RNCNvNtNtNtCs9VvCb0vlg4r_18infraware_terminal8executor7command5testss_25test_logical_and_operator0B9_
FN:402,_RNCNvNtNtNtCs9VvCb0vlg4r_18infraware_terminal8executor7command5testss_25test_nano_command_blocked0B9_
FN:482,_RNCNvNtNtNtCs9VvCb0vlg4r_18infraware_terminal8executor7command5testss_28test_execute_with_empty_args0B9_
FN:307,_RNCNvNtNtNtCs9VvCb0vlg4r_18infraware_terminal8executor7command5testss_31test_command_with_multiple_args0B9_
FN:384,_RNCNvNtNtNtCs9VvCb0vlg4r_18infraware_terminal8executor7command5testss_32test_interactive_command_blocked0B9_
FN:503,_RNCNvNtNtNtCs9VvCb0vlg4r_18infraware_terminal8executor7command5testss_32test_pipe_with_multiple_commands0B9_
FN:17,_RNvMNtNtCs9VvCb0vlg4r_18infraware_terminal8executor7commandNtB2_13CommandOutput10is_success
FN:23,_RNvMNtNtCs9VvCb0vlg4r_18infraware_terminal8executor7commandNtB2_13CommandOutput15combined_output
FN:257,_RNvMs_NtNtCs9VvCb0vlg4r_18infraware_terminal8executor7commandNtB4_15CommandExecutor12execute_sudo
FN:243,_RNvMs_NtNtCs9VvCb0vlg4r_18infraware_terminal8executor7commandNtB4_15CommandExecutor14command_exists
FN:249,_RNvMs_NtNtCs9VvCb0vlg4r_18infraware_terminal8executor7commandNtB4_15CommandExecutor16get_command_path
FN:123,_RNvMs_NtNtCs9VvCb0vlg4r_18infraware_terminal8executor7commandNtB4_15CommandExecutor16is_shell_builtin
FN:118,_RNvMs_NtNtCs9VvCb0vlg4r_18infraware_terminal8executor7commandNtB4_15CommandExecutor22is_interactive_command
FN:144,_RNvMs_NtNtCs9VvCb0vlg4r_18infraware_terminal8executor7commandNtB4_15CommandExecutor7execute
FN:301,_RNvNtNtNtCs9VvCb0vlg4r_18infraware_terminal8executor7command5testss_19test_command_exists
FN:489,_RNvNtNtNtCs9VvCb0vlg4r_18infraware_terminal8executor7command5testss_19test_pipe_execution
FN:286,_RNvNtNtNtCs9VvCb0vlg4r_18infraware_terminal8executor7command5testss_19test_simple_command
FN:421,_RNvNtNtNtCs9VvCb0vlg4r_18infraware_terminal8executor7command5testss_21test_get_command_path
FN:434,_RNvNtNtNtCs9VvCb0vlg4r_18infraware_terminal8executor7command5testss_21test_is_success_false
FN:331,_RNvNtNtNtCs9VvCb0vlg4r_18infraware_terminal8executor7command5testss_22test_command_exit_code
FN:295,_RNvNtNtNtCs9VvCb0vlg4r_18infraware_terminal8executor7command5testss_22test_command_not_found
FN:517,_RNvNtNtNtCs9VvCb0vlg4r_18infraware_terminal8executor7command5testss_23test_redirect_execution
FN:543,_RNvNtNtNtCs9VvCb0vlg4r_18infraware_terminal8executor7command5testss_23test_subshell_execution
FN:317,_RNvNtNtNtCs9VvCb0vlg4r_18infraware_terminal8executor7command5testss_24test_command_with_stderr
FN:394,_RNvNtNtNtCs9VvCb0vlg4r_18infraware_terminal8executor7command5testss_24test_top_command_blocked
FN:342,_RNvNtNtNtCs9VvCb0vlg4r_18infraware_terminal8executor7command5testss_25test_combined_output_both
FN:459,_RNvNtNtNtCs9VvCb0vlg4r_18infraware_terminal8executor7command5testss_25test_command_output_clone
FN:470,_RNvNtNtNtCs9VvCb0vlg4r_18infraware_terminal8executor7command5testss_25test_command_output_debug
FN:532,_RNvNtNtNtCs9VvCb0vlg4r_18infraware_terminal8executor7command5testss_25test_logical_and_operator
FN:402,_RNvNtNtNtCs9VvCb0vlg4r_18infraware_terminal8executor7command5testss_25test_nano_command_blocked
FN:374,_RNvNtNtNtCs9VvCb0vlg4r_18infraware_terminal8executor7command5testss_26test_combined_output_empty
FN:409,_RNvNtNtNtCs9VvCb0vlg4r_18infraware_terminal8executor7command5testss_27test_is_interactive_command
FN:444,_RNvNtNtNtCs9VvCb0vlg4r_18infraware_terminal8executor7command5testss_28test_command_output_equality
FN:482,_RNvNtNtNtCs9VvCb0vlg4r_18infraware_terminal8executor7command5testss_28test_execute_with_empty_args
FN:307,_RNvNtNtNtCs9VvCb0vlg4r_18infraware_terminal8executor7command5testss_31test_command_with_multiple_args
FN:428,_RNvNtNtNtCs9VvCb0vlg4r_18infraware_terminal8executor7command5testss_31test_get_command_path_not_found
FN:364,_RNvNtNtNtCs9VvCb0vlg4r_18infraware_terminal8executor7command5testss_32test_combined_output_stderr_only
FN:354,_RNvNtNtNtCs9VvCb0vlg4r_18infraware_terminal8executor7command5testss_32test_combined_output_stdout_only
FN:384,_RNvNtNtNtCs9VvCb0vlg4r_18infraware_terminal8executor7command5testss_32test_interactive_command_blocked
FN:503,_RNvNtNtNtCs9VvCb0vlg4r_18infraware_terminal8executor7command5testss_32test_pipe_with_multiple_commands
FN:257,_RNCNvMs_NtNtCs9VvCb0vlg4r_18infraware_terminal8executor7commandNtB6_15CommandExecutor12execute_sudo0Ba_
FN:252,_RNCNvMs_NtNtCs9VvCb0vlg4r_18infraware_terminal8executor7commandNtB6_15CommandExecutor16get_command_path0Ba_
FN:148,_RNCNvMs_NtNtCs9VvCb0vlg4r_18infraware_terminal8executor7commandNtB6_15CommandExecutor7execute0Ba_
FN:17,_RNvMNtNtCsdeW3LDTW70x_18infraware_terminal8executor7commandNtB2_13CommandOutput10is_success
FN:23,_RNvMNtNtCsdeW3LDTW70x_18infraware_terminal8executor7commandNtB2_13CommandOutput15combined_output
FN:257,_RNvMs_NtNtCsdeW3LDTW70x_18infraware_terminal8executor7commandNtB4_15CommandExecutor12execute_sudo
FN:243,_RNvMs_NtNtCsdeW3LDTW70x_18infraware_terminal8executor7commandNtB4_15CommandExecutor14command_exists
FN:249,_RNvMs_NtNtCsdeW3LDTW70x_18infraware_terminal8executor7commandNtB4_15CommandExecutor16get_command_path
FN:123,_RNvMs_NtNtCsdeW3LDTW70x_18infraware_terminal8executor7commandNtB4_15CommandExecutor16is_shell_builtin
FN:118,_RNvMs_NtNtCsdeW3LDTW70x_18infraware_terminal8executor7commandNtB4_15CommandExecutor22is_interactive_command
FN:144,_RNvMs_NtNtCsdeW3LDTW70x_18infraware_terminal8executor7commandNtB4_15CommandExecutor7execute
FN:257,_RNCNvMs_NtNtCsdeW3LDTW70x_18infraware_terminal8executor7commandNtB6_15CommandExecutor12execute_sudo0Ba_
FN:252,_RNCNvMs_NtNtCsdeW3LDTW70x_18infraware_terminal8executor7commandNtB6_15CommandExecutor16get_command_path0Ba_
FN:148,_RNCNvMs_NtNtCsdeW3LDTW70x_18infraware_terminal8executor7commandNtB6_15CommandExecutor7execute0Ba_
FN:301,_RNvNtNtNtCsdeW3LDTW70x_18infraware_terminal8executor7command5testss_19test_command_exists
FN:489,_RNvNtNtNtCsdeW3LDTW70x_18infraware_terminal8executor7command5testss_19test_pipe_execution
FN:286,_RNvNtNtNtCsdeW3LDTW70x_18infraware_terminal8executor7command5testss_19test_simple_command
FN:421,_RNvNtNtNtCsdeW3LDTW70x_18infraware_terminal8executor7command5testss_21test_get_command_path
FN:434,_RNvNtNtNtCsdeW3LDTW70x_18infraware_terminal8executor7command5testss_21test_is_success_false
FN:331,_RNvNtNtNtCsdeW3LDTW70x_18infraware_terminal8executor7command5testss_22test_command_exit_code
FN:295,_RNvNtNtNtCsdeW3LDTW70x_18infraware_terminal8executor7command5testss_22test_command_not_found
FN:517,_RNvNtNtNtCsdeW3LDTW70x_18infraware_terminal8executor7command5testss_23test_redirect_execution
FN:543,_RNvNtNtNtCsdeW3LDTW70x_18infraware_terminal8executor7command5testss_23test_subshell_execution
FN:317,_RNvNtNtNtCsdeW3LDTW70x_18infraware_terminal8executor7command5testss_24test_command_with_stderr
FN:394,_RNvNtNtNtCsdeW3LDTW70x_18infraware_terminal8executor7command5testss_24test_top_command_blocked
FN:342,_RNvNtNtNtCsdeW3LDTW70x_18infraware_terminal8executor7command5testss_25test_combined_output_both
FN:459,_RNvNtNtNtCsdeW3LDTW70x_18infraware_terminal8executor7command5testss_25test_command_output_clone
FN:470,_RNvNtNtNtCsdeW3LDTW70x_18infraware_terminal8executor7command5testss_25test_command_output_debug
FN:532,_RNvNtNtNtCsdeW3LDTW70x_18infraware_terminal8executor7command5testss_25test_logical_and_operator
FN:402,_RNvNtNtNtCsdeW3LDTW70x_18infraware_terminal8executor7command5testss_25test_nano_command_blocked
FN:374,_RNvNtNtNtCsdeW3LDTW70x_18infraware_terminal8executor7command5testss_26test_combined_output_empty
FN:409,_RNvNtNtNtCsdeW3LDTW70x_18infraware_terminal8executor7command5testss_27test_is_interactive_command
FN:444,_RNvNtNtNtCsdeW3LDTW70x_18infraware_terminal8executor7command5testss_28test_command_output_equality
FN:482,_RNvNtNtNtCsdeW3LDTW70x_18infraware_terminal8executor7command5testss_28test_execute_with_empty_args
FN:307,_RNvNtNtNtCsdeW3LDTW70x_18infraware_terminal8executor7command5testss_31test_command_with_multiple_args
FN:428,_RNvNtNtNtCsdeW3LDTW70x_18infraware_terminal8executor7command5testss_31test_get_command_path_not_found
FN:364,_RNvNtNtNtCsdeW3LDTW70x_18infraware_terminal8executor7command5testss_32test_combined_output_stderr_only
FN:354,_RNvNtNtNtCsdeW3LDTW70x_18infraware_terminal8executor7command5testss_32test_combined_output_stdout_only
FN:384,_RNvNtNtNtCsdeW3LDTW70x_18infraware_terminal8executor7command5testss_32test_interactive_command_blocked
FN:503,_RNvNtNtNtCsdeW3LDTW70x_18infraware_terminal8executor7command5testss_32test_pipe_with_multiple_commands
FN:489,_RNCNvNtNtNtCsdeW3LDTW70x_18infraware_terminal8executor7command5testss_19test_pipe_execution0B9_
FN:286,_RNCNvNtNtNtCsdeW3LDTW70x_18infraware_terminal8executor7command5testss_19test_simple_command0B9_
FN:331,_RNCNvNtNtNtCsdeW3LDTW70x_18infraware_terminal8executor7command5testss_22test_command_exit_code0B9_
FN:295,_RNCNvNtNtNtCsdeW3LDTW70x_18infraware_terminal8executor7command5testss_22test_command_not_found0B9_
FN:517,_RNCNvNtNtNtCsdeW3LDTW70x_18infraware_terminal8executor7command5testss_23test_redirect_execution0B9_
FN:543,_RNCNvNtNtNtCsdeW3LDTW70x_18infraware_terminal8executor7command5testss_23test_subshell_execution0B9_
FN:317,_RNCNvNtNtNtCsdeW3LDTW70x_18infraware_terminal8executor7command5testss_24test_command_with_stderr0B9_
FN:394,_RNCNvNtNtNtCsdeW3LDTW70x_18infraware_terminal8executor7command5testss_24test_top_command_blocked0B9_
FN:532,_RNCNvNtNtNtCsdeW3LDTW70x_18infraware_terminal8executor7command5testss_25test_logical_and_operator0B9_
FN:402,_RNCNvNtNtNtCsdeW3LDTW70x_18infraware_terminal8executor7command5testss_25test_nano_command_blocked0B9_
FN:482,_RNCNvNtNtNtCsdeW3LDTW70x_18infraware_terminal8executor7command5testss_28test_execute_with_empty_args0B9_
FN:307,_RNCNvNtNtNtCsdeW3LDTW70x_18infraware_terminal8executor7command5testss_31test_command_with_multiple_args0B9_
FN:384,_RNCNvNtNtNtCsdeW3LDTW70x_18infraware_terminal8executor7command5testss_32test_interactive_command_blocked0B9_
FN:503,_RNCNvNtNtNtCsdeW3LDTW70x_18infraware_terminal8executor7command5testss_32test_pipe_with_multiple_commands0B9_
FNDA:0,_RNCNvMs_NtNtCsgbM7bOyfJDi_18infraware_terminal8executor7commandNtB6_15CommandExecutor12execute_sudo0Ba_
FNDA:1,_RNCNvMs_NtNtCsgbM7bOyfJDi_18infraware_terminal8executor7commandNtB6_15CommandExecutor16get_command_path0Ba_
FNDA:16,_RNCNvMs_NtNtCsgbM7bOyfJDi_18infraware_terminal8executor7commandNtB6_15CommandExecutor7execute0Ba_
FNDA:9,_RNvMNtNtCsgbM7bOyfJDi_18infraware_terminal8executor7commandNtB2_13CommandOutput10is_success
FNDA:0,_RNvMNtNtCsgbM7bOyfJDi_18infraware_terminal8executor7commandNtB2_13CommandOutput15combined_output
FNDA:0,_RNvMs_NtNtCsgbM7bOyfJDi_18infraware_terminal8executor7commandNtB4_15CommandExecutor12execute_sudo
FNDA:12,_RNvMs_NtNtCsgbM7bOyfJDi_18infraware_terminal8executor7commandNtB4_15CommandExecutor14command_exists
FNDA:1,_RNvMs_NtNtCsgbM7bOyfJDi_18infraware_terminal8executor7commandNtB4_15CommandExecutor16get_command_path
FNDA:16,_RNvMs_NtNtCsgbM7bOyfJDi_18infraware_terminal8executor7commandNtB4_15CommandExecutor16is_shell_builtin
FNDA:16,_RNvMs_NtNtCsgbM7bOyfJDi_18infraware_terminal8executor7commandNtB4_15CommandExecutor22is_interactive_command
FNDA:16,_RNvMs_NtNtCsgbM7bOyfJDi_18infraware_terminal8executor7commandNtB4_15CommandExecutor7execute
FNDA:0,_RNCNvMs_NtNtCskvicDDTzzc8_18infraware_terminal8executor7commandNtB6_15CommandExecutor16get_command_path0Ba_
FNDA:0,_RNvMNtNtCskvicDDTzzc8_18infraware_terminal8executor7commandNtB2_13CommandOutput15combined_output
FNDA:0,_RNvMs_NtNtCskvicDDTzzc8_18infraware_terminal8executor7commandNtB4_15CommandExecutor16get_command_path
FNDA:0,_RNvMNtNtCskvicDDTzzc8_18infraware_terminal8executor7commandNtB2_13CommandOutput10is_success
FNDA:0,_RNvMs_NtNtCskvicDDTzzc8_18infraware_terminal8executor7commandNtB4_15CommandExecutor12execute_sudo
FNDA:0,_RNvMs_NtNtCskvicDDTzzc8_18infraware_terminal8executor7commandNtB4_15CommandExecutor14command_exists
FNDA:0,_RNvMs_NtNtCskvicDDTzzc8_18infraware_terminal8executor7commandNtB4_15CommandExecutor16is_shell_builtin
FNDA:0,_RNvMs_NtNtCskvicDDTzzc8_18infraware_terminal8executor7commandNtB4_15CommandExecutor22is_interactive_command
FNDA:0,_RNvMs_NtNtCskvicDDTzzc8_18infraware_terminal8executor7commandNtB4_15CommandExecutor7execute
FNDA:0,_RNCNvMs_NtNtCskvicDDTzzc8_18infraware_terminal8executor7commandNtB6_15CommandExecutor12execute_sudo0Ba_
FNDA:0,_RNCNvMs_NtNtCskvicDDTzzc8_18infraware_terminal8executor7commandNtB6_15CommandExecutor7execute0Ba_
FNDA:1,_RNCNvNtNtNtCs9VvCb0vlg4r_18infraware_terminal8executor7command5testss_19test_pipe_execution0B9_
FNDA:1,_RNCNvNtNtNtCs9VvCb0vlg4r_18infraware_terminal8executor7command5testss_19test_simple_command0B9_
FNDA:1,_RNCNvNtNtNtCs9VvCb0vlg4r_18infraware_terminal8executor7command5testss_22test_command_exit_code0B9_
FNDA:1,_RNCNvNtNtNtCs9VvCb0vlg4r_18infraware_terminal8executor7command5testss_22test_command_not_found0B9_
FNDA:1,_RNCNvNtNtNtCs9VvCb0vlg4r_18infraware_terminal8executor7command5testss_23test_redirect_execution0B9_
FNDA:1,_RNCNvNtNtNtCs9VvCb0vlg4r_18infraware_terminal8executor7command5testss_23test_subshell_execution0B9_
FNDA:1,_RNCNvNtNtNtCs9VvCb0vlg4r_18infraware_terminal8executor7command5testss_24test_command_with_stderr0B9_
FNDA:1,_RNCNvNtNtNtCs9VvCb0vlg4r_18infraware_terminal8executor7command5testss_24test_top_command_blocked0B9_
FNDA:1,_RNCNvNtNtNtCs9VvCb0vlg4r_18infraware_terminal8executor7command5testss_25test_logical_and_operator0B9_
FNDA:1,_RNCNvNtNtNtCs9VvCb0vlg4r_18infraware_terminal8executor7command5testss_25test_nano_command_blocked0B9_
FNDA:1,_RNCNvNtNtNtCs9VvCb0vlg4r_18infraware_terminal8executor7command5testss_28test_execute_with_empty_args0B9_
FNDA:1,_RNCNvNtNtNtCs9VvCb0vlg4r_18infraware_terminal8executor7command5testss_31test_command_with_multiple_args0B9_
FNDA:1,_RNCNvNtNtNtCs9VvCb0vlg4r_18infraware_terminal8executor7command5testss_32test_interactive_command_blocked0B9_
FNDA:1,_RNCNvNtNtNtCs9VvCb0vlg4r_18infraware_terminal8executor7command5testss_32test_pipe_with_multiple_commands0B9_
FNDA:23,_RNvMNtNtCs9VvCb0vlg4r_18infraware_terminal8executor7commandNtB2_13CommandOutput10is_success
FNDA:4,_RNvMNtNtCs9VvCb0vlg4r_18infraware_terminal8executor7commandNtB2_13CommandOutput15combined_output
FNDA:0,_RNvMs_NtNtCs9VvCb0vlg4r_18infraware_terminal8executor7commandNtB4_15CommandExecutor12execute_sudo
FNDA:53,_RNvMs_NtNtCs9VvCb0vlg4r_18infraware_terminal8executor7commandNtB4_15CommandExecutor14command_exists
FNDA:2,_RNvMs_NtNtCs9VvCb0vlg4r_18infraware_terminal8executor7commandNtB4_15CommandExecutor16get_command_path
FNDA:20,_RNvMs_NtNtCs9VvCb0vlg4r_18infraware_terminal8executor7commandNtB4_15CommandExecutor16is_shell_builtin
FNDA:31,_RNvMs_NtNtCs9VvCb0vlg4r_18infraware_terminal8executor7commandNtB4_15CommandExecutor22is_interactive_command
FNDA:23,_RNvMs_NtNtCs9VvCb0vlg4r_18infraware_terminal8executor7commandNtB4_15CommandExecutor7execute
FNDA:1,_RNvNtNtNtCs9VvCb0vlg4r_18infraware_terminal8executor7command5testss_19test_command_exists
FNDA:1,_RNvNtNtNtCs9VvCb0vlg4r_18infraware_terminal8executor7command5testss_19test_pipe_execution
FNDA:1,_RNvNtNtNtCs9VvCb0vlg4r_18infraware_terminal8executor7command5testss_19test_simple_command
FNDA:1,_RNvNtNtNtCs9VvCb0vlg4r_18infraware_terminal8executor7command5testss_21test_get_command_path
FNDA:1,_RNvNtNtNtCs9VvCb0vlg4r_18infraware_terminal8executor7command5testss_21test_is_success_false
FNDA:1,_RNvNtNtNtCs9VvCb0vlg4r_18infraware_terminal8executor7command5testss_22test_command_exit_code
FNDA:1,_RNvNtNtNtCs9VvCb0vlg4r_18infraware_terminal8executor7command5testss_22test_command_not_found
FNDA:1,_RNvNtNtNtCs9VvCb0vlg4r_18infraware_terminal8executor7command5testss_23test_redirect_execution
FNDA:1,_RNvNtNtNtCs9VvCb0vlg4r_18infraware_terminal8executor7command5testss_23test_subshell_execution
FNDA:1,_RNvNtNtNtCs9VvCb0vlg4r_18infraware_terminal8executor7command5testss_24test_command_with_stderr
FNDA:1,_RNvNtNtNtCs9VvCb0vlg4r_18infraware_terminal8executor7command5testss_24test_top_command_blocked
FNDA:1,_RNvNtNtNtCs9VvCb0vlg4r_18infraware_terminal8executor7command5testss_25test_combined_output_both
FNDA:1,_RNvNtNtNtCs9VvCb0vlg4r_18infraware_terminal8executor7command5testss_25test_command_output_clone
FNDA:1,_RNvNtNtNtCs9VvCb0vlg4r_18infraware_terminal8executor7command5testss_25test_command_output_debug
FNDA:1,_RNvNtNtNtCs9VvCb0vlg4r_18infraware_terminal8executor7command5testss_25test_logical_and_operator
FNDA:1,_RNvNtNtNtCs9VvCb0vlg4r_18infraware_terminal8executor7command5testss_25test_nano_command_blocked
FNDA:1,_RNvNtNtNtCs9VvCb0vlg4r_18infraware_terminal8executor7command5testss_26test_combined_output_empty
FNDA:1,_RNvNtNtNtCs9VvCb0vlg4r_18infraware_terminal8executor7command5testss_27test_is_interactive_command
FNDA:1,_RNvNtNtNtCs9VvCb0vlg4r_18infraware_terminal8executor7command5testss_28test_command_output_equality
FNDA:1,_RNvNtNtNtCs9VvCb0vlg4r_18infraware_terminal8executor7command5testss_28test_execute_with_empty_args
FNDA:1,_RNvNtNtNtCs9VvCb0vlg4r_18infraware_terminal8executor7command5testss_31test_command_with_multiple_args
FNDA:1,_RNvNtNtNtCs9VvCb0vlg4r_18infraware_terminal8executor7command5testss_31test_get_command_path_not_found
FNDA:1,_RNvNtNtNtCs9VvCb0vlg4r_18infraware_terminal8executor7command5testss_32test_combined_output_stderr_only
FNDA:1,_RNvNtNtNtCs9VvCb0vlg4r_18infraware_terminal8executor7command5testss_32test_combined_output_stdout_only
FNDA:1,_RNvNtNtNtCs9VvCb0vlg4r_18infraware_terminal8executor7command5testss_32test_interactive_command_blocked
FNDA:1,_RNvNtNtNtCs9VvCb0vlg4r_18infraware_terminal8executor7command5testss_32test_pipe_with_multiple_commands
FNDA:0,_RNCNvMs_NtNtCs9VvCb0vlg4r_18infraware_terminal8executor7commandNtB6_15CommandExecutor12execute_sudo0Ba_
FNDA:1,_RNCNvMs_NtNtCs9VvCb0vlg4r_18infraware_terminal8executor7commandNtB6_15CommandExecutor16get_command_path0Ba_
FNDA:23,_RNCNvMs_NtNtCs9VvCb0vlg4r_18infraware_terminal8executor7commandNtB6_15CommandExecutor7execute0Ba_
FNDA:14,_RNvMNtNtCsdeW3LDTW70x_18infraware_terminal8executor7commandNtB2_13CommandOutput10is_success
FNDA:4,_RNvMNtNtCsdeW3LDTW70x_18infraware_terminal8executor7commandNtB2_13CommandOutput15combined_output
FNDA:0,_RNvMs_NtNtCsdeW3LDTW70x_18infraware_terminal8executor7commandNtB4_15CommandExecutor12execute_sudo
FNDA:45,_RNvMs_NtNtCsdeW3LDTW70x_18infraware_terminal8executor7commandNtB4_15CommandExecutor14command_exists
FNDA:2,_RNvMs_NtNtCsdeW3LDTW70x_18infraware_terminal8executor7commandNtB4_15CommandExecutor16get_command_path
FNDA:12,_RNvMs_NtNtCsdeW3LDTW70x_18infraware_terminal8executor7commandNtB4_15CommandExecutor16is_shell_builtin
FNDA:23,_RNvMs_NtNtCsdeW3LDTW70x_18infraware_terminal8executor7commandNtB4_15CommandExecutor22is_interactive_command
FNDA:15,_RNvMs_NtNtCsdeW3LDTW70x_18infraware_terminal8executor7commandNtB4_15CommandExecutor7execute
FNDA:0,_RNCNvMs_NtNtCsdeW3LDTW70x_18infraware_terminal8executor7commandNtB6_15CommandExecutor12execute_sudo0Ba_
FNDA:1,_RNCNvMs_NtNtCsdeW3LDTW70x_18infraware_terminal8executor7commandNtB6_15CommandExecutor16get_command_path0Ba_
FNDA:15,_RNCNvMs_NtNtCsdeW3LDTW70x_18infraware_terminal8executor7commandNtB6_15CommandExecutor7execute0Ba_
FNDA:1,_RNvNtNtNtCsdeW3LDTW70x_18infraware_terminal8executor7command5testss_19test_command_exists
FNDA:1,_RNvNtNtNtCsdeW3LDTW70x_18infraware_terminal8executor7command5testss_19test_pipe_execution
FNDA:1,_RNvNtNtNtCsdeW3LDTW70x_18infraware_terminal8executor7command5testss_19test_simple_command
FNDA:1,_RNvNtNtNtCsdeW3LDTW70x_18infraware_terminal8executor7command5testss_21test_get_command_path
FNDA:1,_RNvNtNtNtCsdeW3LDTW70x_18infraware_terminal8executor7command5testss_21test_is_success_false
FNDA:1,_RNvNtNtNtCsdeW3LDTW70x_18infraware_terminal8executor7command5testss_22test_command_exit_code
FNDA:1,_RNvNtNtNtCsdeW3LDTW70x_18infraware_terminal8executor7command5testss_22test_command_not_found
FNDA:1,_RNvNtNtNtCsdeW3LDTW70x_18infraware_terminal8executor7command5testss_23test_redirect_execution
FNDA:1,_RNvNtNtNtCsdeW3LDTW70x_18infraware_terminal8executor7command5testss_23test_subshell_execution
FNDA:1,_RNvNtNtNtCsdeW3LDTW70x_18infraware_terminal8executor7command5testss_24test_command_with_stderr
FNDA:1,_RNvNtNtNtCsdeW3LDTW70x_18infraware_terminal8executor7command5testss_24test_top_command_blocked
FNDA:1,_RNvNtNtNtCsdeW3LDTW70x_18infraware_terminal8executor7command5testss_25test_combined_output_both
FNDA:1,_RNvNtNtNtCsdeW3LDTW70x_18infraware_terminal8executor7command5testss_25test_command_output_clone
FNDA:1,_RNvNtNtNtCsdeW3LDTW70x_18infraware_terminal8executor7command5testss_25test_command_output_debug
FNDA:1,_RNvNtNtNtCsdeW3LDTW70x_18infraware_terminal8executor7command5testss_25test_logical_and_operator
FNDA:1,_RNvNtNtNtCsdeW3LDTW70x_18infraware_terminal8executor7command5testss_25test_nano_command_blocked
FNDA:1,_RNvNtNtNtCsdeW3LDTW70x_18infraware_terminal8executor7command5testss_26test_combined_output_empty
FNDA:1,_RNvNtNtNtCsdeW3LDTW70x_18infraware_terminal8executor7command5testss_27test_is_interactive_command
FNDA:1,_RNvNtNtNtCsdeW3LDTW70x_18infraware_terminal8executor7command5testss_28test_command_output_equality
FNDA:1,_RNvNtNtNtCsdeW3LDTW70x_18infraware_terminal8executor7command5testss_28test_execute_with_empty_args
FNDA:1,_RNvNtNtNtCsdeW3LDTW70x_18infraware_terminal8executor7command5testss_31test_command_with_multiple_args
FNDA:1,_RNvNtNtNtCsdeW3LDTW70x_18infraware_terminal8executor7command5testss_31test_get_command_path_not_found
FNDA:1,_RNvNtNtNtCsdeW3LDTW70x_18infraware_terminal8executor7command5testss_32test_combined_output_stderr_only
FNDA:1,_RNvNtNtNtCsdeW3LDTW70x_18infraware_terminal8executor7command5testss_32test_combined_output_stdout_only
FNDA:1,_RNvNtNtNtCsdeW3LDTW70x_18infraware_terminal8executor7command5testss_32test_interactive_command_blocked
FNDA:1,_RNvNtNtNtCsdeW3LDTW70x_18infraware_terminal8executor7command5testss_32test_pipe_with_multiple_commands
FNDA:1,_RNCNvNtNtNtCsdeW3LDTW70x_18infraware_terminal8executor7command5testss_19test_pipe_execution0B9_
FNDA:1,_RNCNvNtNtNtCsdeW3LDTW70x_18infraware_terminal8executor7command5testss_19test_simple_command0B9_
FNDA:1,_RNCNvNtNtNtCsdeW3LDTW70x_18infraware_terminal8executor7command5testss_22test_command_exit_code0B9_
FNDA:1,_RNCNvNtNtNtCsdeW3LDTW70x_18infraware_terminal8executor7command5testss_22test_command_not_found0B9_
FNDA:1,_RNCNvNtNtNtCsdeW3LDTW70x_18infraware_terminal8executor7command5testss_23test_redirect_execution0B9_
FNDA:1,_RNCNvNtNtNtCsdeW3LDTW70x_18infraware_terminal8executor7command5testss_23test_subshell_execution0B9_
FNDA:1,_RNCNvNtNtNtCsdeW3LDTW70x_18infraware_terminal8executor7command5testss_24test_command_with_stderr0B9_
FNDA:1,_RNCNvNtNtNtCsdeW3LDTW70x_18infraware_terminal8executor7command5testss_24test_top_command_blocked0B9_
FNDA:1,_RNCNvNtNtNtCsdeW3LDTW70x_18infraware_terminal8executor7command5testss_25test_logical_and_operator0B9_
FNDA:1,_RNCNvNtNtNtCsdeW3LDTW70x_18infraware_terminal8executor7command5testss_25test_nano_command_blocked0B9_
FNDA:1,_RNCNvNtNtNtCsdeW3LDTW70x_18infraware_terminal8executor7command5testss_28test_execute_with_empty_args0B9_
FNDA:1,_RNCNvNtNtNtCsdeW3LDTW70x_18infraware_terminal8executor7command5testss_31test_command_with_multiple_args0B9_
FNDA:1,_RNCNvNtNtNtCsdeW3LDTW70x_18infraware_terminal8executor7command5testss_32test_interactive_command_blocked0B9_
FNDA:1,_RNCNvNtNtNtCsdeW3LDTW70x_18infraware_terminal8executor7command5testss_32test_pipe_with_multiple_commands0B9_
FNF:51
FNH:49
DA:17,46
DA:18,46
DA:19,46
DA:23,8
DA:24,8
DA:25,8
DA:26,4
DA:27,4
DA:28,8
DA:29,4
DA:30,2
DA:31,2
DA:32,4
DA:33,4
DA:34,8
DA:35,8
DA:118,70
DA:119,70
DA:120,70
DA:123,48
DA:124,48
DA:125,48
DA:144,54
DA:145,54
DA:146,54
DA:147,54
DA:148,54
DA:150,54
DA:151,6
DA:152,6
DA:153,6
DA:154,6
DA:155,6
DA:156,6
DA:157,6
DA:158,6
DA:159,6
DA:160,6
DA:161,6
DA:162,6
DA:163,6
DA:164,6
DA:165,48
DA:169,48
DA:171,3
DA:172,1
DA:174,2
DA:177,3
DA:178,3
DA:179,3
DA:180,3
DA:181,3
DA:182,3
DA:183,3
DA:185,3
DA:186,3
DA:187,3
DA:189,3
DA:190,3
DA:191,3
DA:192,3
DA:193,3
DA:194,45
DA:197,45
DA:198,15
DA:199,15
DA:200,15
DA:201,15
DA:202,15
DA:203,15
DA:204,15
DA:206,15
DA:207,15
DA:208,15
DA:210,15
DA:211,15
DA:212,15
DA:213,15
DA:214,15
DA:215,30
DA:219,30
DA:220,4
DA:221,26
DA:224,26
DA:225,26
DA:226,26
DA:227,26
DA:228,26
DA:229,26
DA:231,26
DA:232,26
DA:233,26
DA:235,26
DA:236,26
DA:237,26
DA:238,26
DA:239,26
DA:240,54
DA:243,110
DA:244,110
DA:245,110
DA:249,5
DA:250,5
DA:251,5
DA:252,5
DA:253,5
DA:257,0
DA:259,0
DA:260,0
DA:261,0
DA:265,0
DA:266,0
DA:267,0
DA:268,0
DA:269,0
DA:270,0
DA:271,0
DA:273,0
DA:274,0
DA:275,0
DA:276,0
DA:277,0
DA:278,0
DA:286,2
DA:287,2
DA:288,2
DA:289,2
DA:290,2
DA:291,2
DA:292,2
DA:295,2
DA:296,2
DA:297,2
DA:298,2
DA:301,2
DA:302,2
DA:303,2
DA:304,2
DA:307,2
DA:308,2
DA:309,2
DA:310,2
DA:311,2
DA:312,2
DA:313,2
DA:314,2
DA:317,2
DA:319,2
DA:320,2
DA:321,2
DA:322,2
DA:323,2
DA:324,2
DA:325,2
DA:326,2
DA:327,2
DA:328,2
DA:331,2
DA:333,2
DA:334,2
DA:335,2
DA:336,2
DA:337,2
DA:338,2
DA:339,2
DA:342,2
DA:343,2
DA:344,2
DA:345,2
DA:346,2
DA:347,2
DA:348,2
DA:349,2
DA:350,2
DA:351,2
DA:354,2
DA:355,2
DA:356,2
DA:357,2
DA:358,2
DA:359,2
DA:360,2
DA:361,2
DA:364,2
DA:365,2
DA:366,2
DA:367,2
DA:368,2
DA:369,2
DA:370,2
DA:371,2
DA:374,2
DA:375,2
DA:376,2
DA:377,2
DA:378,2
DA:379,2
DA:380,2
DA:381,2
DA:384,2
DA:386,2
DA:387,2
DA:388,2
DA:389,2
DA:390,2
DA:391,2
DA:394,2
DA:395,2
DA:396,2
DA:397,2
DA:398,2
DA:399,2
DA:402,2
DA:403,2
DA:404,2
DA:405,2
DA:406,2
DA:409,2
DA:410,2
DA:411,2
DA:412,2
DA:413,2
DA:414,2
DA:415,2
DA:416,2
DA:417,2
DA:418,2
DA:421,2
DA:422,2
DA:423,2
DA:424,2
DA:425,2
DA:428,2
DA:429,2
DA:430,2
DA:431,2
DA:434,2
DA:435,2
DA:436,2
DA:437,2
DA:438,2
DA:439,2
DA:440,2
DA:441,2
DA:444,2
DA:445,2
DA:446,2
DA:447,2
DA:448,2
DA:449,2
DA:450,2
DA:451,2
DA:452,2
DA:453,2
DA:454,2
DA:455,2
DA:456,2
DA:459,2
DA:460,2
DA:461,2
DA:462,2
DA:463,2
DA:464,2
DA:465,2
DA:466,2
DA:467,2
DA:470,2
DA:471,2
DA:472,2
DA:473,2
DA:474,2
DA:475,2
DA:476,2
DA:477,2
DA:478,2
DA:479,2
DA:482,2
DA:483,2
DA:484,2
DA:485,2
DA:486,2
DA:489,2
DA:491,2
DA:492,2
DA:493,2
DA:494,2
DA:495,2
DA:496,2
DA:497,2
DA:498,2
DA:499,2
DA:500,2
DA:503,2
DA:505,2
DA:506,2
DA:507,2
DA:508,2
DA:509,2
DA:510,2
DA:511,2
DA:512,2
DA:513,2
DA:514,2
DA:517,2
DA:520,2
DA:521,2
DA:522,2
DA:523,2
DA:524,2
DA:525,2
DA:526,2
DA:527,2
DA:528,2
DA:529,2
DA:532,2
DA:534,2
DA:535,2
DA:536,2
DA:537,2
DA:538,2
DA:539,2
DA:540,2
DA:543,2
DA:545,2
DA:546,2
DA:547,2
DA:548,2
DA:549,2
DA:550,2
BRF:0
BRH:0
LF:360
LH:328
end_of_record
SF:/home/crist/infraware-terminal/terminal-app/src/executor/completion.rs
FN:109,_RNCNvMNtNtCsgbM7bOyfJDi_18infraware_terminal8executor10completionNtB4_13TabCompletion18complete_file_path0B8_
FN:109,_RNCNvMNtNtCskvicDDTzzc8_18infraware_terminal8executor10completionNtB4_13TabCompletion18complete_file_path0B8_
FN:11,_RNvMNtNtCskvicDDTzzc8_18infraware_terminal8executor10completionNtB2_13TabCompletion15get_completions
FN:22,_RNvMNtNtCskvicDDTzzc8_18infraware_terminal8executor10completionNtB2_13TabCompletion16complete_command
FN:124,_RNvMNtNtCskvicDDTzzc8_18infraware_terminal8executor10completionNtB2_13TabCompletion17get_common_prefix
FN:60,_RNvMNtNtCskvicDDTzzc8_18infraware_terminal8executor10completionNtB2_13TabCompletion18complete_file_path
FN:152,_RNvNtNtNtCs9VvCb0vlg4r_18infraware_terminal8executor10completion5testss_21test_complete_command
FN:237,_RNvNtNtNtCs9VvCb0vlg4r_18infraware_terminal8executor10completion5testss_22test_get_common_prefix
FN:255,_RNvNtNtNtCs9VvCb0vlg4r_18infraware_terminal8executor10completion5testss_28test_get_common_prefix_empty
FN:182,_RNvNtNtNtCs9VvCb0vlg4r_18infraware_terminal8executor10completion5testss_28test_get_completions_command
FN:196,_RNvNtNtNtCs9VvCb0vlg4r_18infraware_terminal8executor10completion5testss_29test_complete_file_path_basic
FN:248,_RNvNtNtNtCs9VvCb0vlg4r_18infraware_terminal8executor10completion5testss_29test_get_common_prefix_single
FN:159,_RNvNtNtNtCs9VvCb0vlg4r_18infraware_terminal8executor10completion5testss_30test_complete_command_no_match
FN:189,_RNvNtNtNtCs9VvCb0vlg4r_18infraware_terminal8executor10completion5testss_30test_get_completions_file_path
FN:210,_RNvNtNtNtCs9VvCb0vlg4r_18infraware_terminal8executor10completion5testss_31test_complete_file_path_rsplitn
FN:262,_RNvNtNtNtCs9VvCb0vlg4r_18infraware_terminal8executor10completion5testss_32test_get_common_prefix_no_common
FN:230,_RNvNtNtNtCs9VvCb0vlg4r_18infraware_terminal8executor10completion5testss_34test_complete_file_path_dot_prefix
FN:203,_RNvNtNtNtCs9VvCb0vlg4r_18infraware_terminal8executor10completion5testss_34test_complete_file_path_with_slash
FN:171,_RNvNtNtNtCs9VvCb0vlg4r_18infraware_terminal8executor10completion5testss_35test_complete_command_deduplication
FN:223,_RNvNtNtNtCs9VvCb0vlg4r_18infraware_terminal8executor10completion5testss_35test_complete_file_path_single_word
FN:273,_RNvNtNtNtCs9VvCb0vlg4r_18infraware_terminal8executor10completion5testss_36test_get_common_prefix_partial_match
FN:217,_RNvNtNtNtCs9VvCb0vlg4r_18infraware_terminal8executor10completion5testss_37test_complete_file_path_empty_partial
FN:11,_RNvMNtNtCs9VvCb0vlg4r_18infraware_terminal8executor10completionNtB2_13TabCompletion15get_completions
FN:22,_RNvMNtNtCs9VvCb0vlg4r_18infraware_terminal8executor10completionNtB2_13TabCompletion16complete_command
FN:124,_RNvMNtNtCs9VvCb0vlg4r_18infraware_terminal8executor10completionNtB2_13TabCompletion17get_common_prefix
FN:60,_RNvMNtNtCs9VvCb0vlg4r_18infraware_terminal8executor10completionNtB2_13TabCompletion18complete_file_path
FN:109,_RNCNvMNtNtCs9VvCb0vlg4r_18infraware_terminal8executor10completionNtB4_13TabCompletion18complete_file_path0B8_
FN:166,_RNCNvNtNtNtCs9VvCb0vlg4r_18infraware_terminal8executor10completion5testss_30test_complete_command_no_match0B9_
FN:11,_RNvMNtNtCsdeW3LDTW70x_18infraware_terminal8executor10completionNtB2_13TabCompletion15get_completions
FN:22,_RNvMNtNtCsdeW3LDTW70x_18infraware_terminal8executor10completionNtB2_13TabCompletion16complete_command
FN:124,_RNvMNtNtCsdeW3LDTW70x_18infraware_terminal8executor10completionNtB2_13TabCompletion17get_common_prefix
FN:60,_RNvMNtNtCsdeW3LDTW70x_18infraware_terminal8executor10completionNtB2_13TabCompletion18complete_file_path
FN:166,_RNCNvNtNtNtCsdeW3LDTW70x_18infraware_terminal8executor10completion5testss_30test_complete_command_no_match0B9_
FN:109,_RNCNvMNtNtCsdeW3LDTW70x_18infraware_terminal8executor10completionNtB4_13TabCompletion18complete_file_path0B8_
FN:152,_RNvNtNtNtCsdeW3LDTW70x_18infraware_terminal8executor10completion5testss_21test_complete_command
FN:237,_RNvNtNtNtCsdeW3LDTW70x_18infraware_terminal8executor10completion5testss_22test_get_common_prefix
FN:255,_RNvNtNtNtCsdeW3LDTW70x_18infraware_terminal8executor10completion5testss_28test_get_common_prefix_empty
FN:182,_RNvNtNtNtCsdeW3LDTW70x_18infraware_terminal8executor10completion5testss_28test_get_completions_command
FN:196,_RNvNtNtNtCsdeW3LDTW70x_18infraware_terminal8executor10completion5testss_29test_complete_file_path_basic
FN:248,_RNvNtNtNtCsdeW3LDTW70x_18infraware_terminal8executor10completion5testss_29test_get_common_prefix_single
FN:159,_RNvNtNtNtCsdeW3LDTW70x_18infraware_terminal8executor10completion5testss_30test_complete_command_no_match
FN:189,_RNvNtNtNtCsdeW3LDTW70x_18infraware_terminal8executor10completion5testss_30test_get_completions_file_path
FN:210,_RNvNtNtNtCsdeW3LDTW70x_18infraware_terminal8executor10completion5testss_31test_complete_file_path_rsplitn
FN:262,_RNvNtNtNtCsdeW3LDTW70x_18infraware_terminal8executor10completion5testss_32test_get_common_prefix_no_common
FN:230,_RNvNtNtNtCsdeW3LDTW70x_18infraware_terminal8executor10completion5testss_34test_complete_file_path_dot_prefix
FN:203,_RNvNtNtNtCsdeW3LDTW70x_18infraware_terminal8executor10completion5testss_34test_complete_file_path_with_slash
FN:171,_RNvNtNtNtCsdeW3LDTW70x_18infraware_terminal8executor10completion5testss_35test_complete_command_deduplication
FN:223,_RNvNtNtNtCsdeW3LDTW70x_18infraware_terminal8executor10completion5testss_35test_complete_file_path_single_word
FN:273,_RNvNtNtNtCsdeW3LDTW70x_18infraware_terminal8executor10completion5testss_36test_get_common_prefix_partial_match
FN:217,_RNvNtNtNtCsdeW3LDTW70x_18infraware_terminal8executor10completion5testss_37test_complete_file_path_empty_partial
FNDA:0,_RNCNvMNtNtCsgbM7bOyfJDi_18infraware_terminal8executor10completionNtB4_13TabCompletion18complete_file_path0B8_
FNDA:0,_RNCNvMNtNtCskvicDDTzzc8_18infraware_terminal8executor10completionNtB4_13TabCompletion18complete_file_path0B8_
FNDA:0,_RNvMNtNtCskvicDDTzzc8_18infraware_terminal8executor10completionNtB2_13TabCompletion15get_completions
FNDA:0,_RNvMNtNtCskvicDDTzzc8_18infraware_terminal8executor10completionNtB2_13TabCompletion16complete_command
FNDA:0,_RNvMNtNtCskvicDDTzzc8_18infraware_terminal8executor10completionNtB2_13TabCompletion17get_common_prefix
FNDA:0,_RNvMNtNtCskvicDDTzzc8_18infraware_terminal8executor10completionNtB2_13TabCompletion18complete_file_path
FNDA:1,_RNvNtNtNtCs9VvCb0vlg4r_18infraware_terminal8executor10completion5testss_21test_complete_command
FNDA:1,_RNvNtNtNtCs9VvCb0vlg4r_18infraware_terminal8executor10completion5testss_22test_get_common_prefix
FNDA:1,_RNvNtNtNtCs9VvCb0vlg4r_18infraware_terminal8executor10completion5testss_28test_get_common_prefix_empty
FNDA:1,_RNvNtNtNtCs9VvCb0vlg4r_18infraware_terminal8executor10completion5testss_28test_get_completions_command
FNDA:1,_RNvNtNtNtCs9VvCb0vlg4r_18infraware_terminal8executor10completion5testss_29test_complete_file_path_basic
FNDA:1,_RNvNtNtNtCs9VvCb0vlg4r_18infraware_terminal8executor10completion5testss_29test_get_common_prefix_single
FNDA:1,_RNvNtNtNtCs9VvCb0vlg4r_18infraware_terminal8executor10completion5testss_30test_complete_command_no_match
FNDA:1,_RNvNtNtNtCs9VvCb0vlg4r_18infraware_terminal8executor10completion5testss_30test_get_completions_file_path
FNDA:1,_RNvNtNtNtCs9VvCb0vlg4r_18infraware_terminal8executor10completion5testss_31test_complete_file_path_rsplitn
FNDA:1,_RNvNtNtNtCs9VvCb0vlg4r_18infraware_terminal8executor10completion5testss_32test_get_common_prefix_no_common
FNDA:1,_RNvNtNtNtCs9VvCb0vlg4r_18infraware_terminal8executor10completion5testss_34test_complete_file_path_dot_prefix
FNDA:1,_RNvNtNtNtCs9VvCb0vlg4r_18infraware_terminal8executor10completion5testss_34test_complete_file_path_with_slash
FNDA:1,_RNvNtNtNtCs9VvCb0vlg4r_18infraware_terminal8executor10completion5testss_35test_complete_command_deduplication
FNDA:1,_RNvNtNtNtCs9VvCb0vlg4r_18infraware_terminal8executor10completion5testss_35test_complete_file_path_single_word
FNDA:1,_RNvNtNtNtCs9VvCb0vlg4r_18infraware_terminal8executor10completion5testss_36test_get_common_prefix_partial_match
FNDA:1,_RNvNtNtNtCs9VvCb0vlg4r_18infraware_terminal8executor10completion5testss_37test_complete_file_path_empty_partial
FNDA:2,_RNvMNtNtCs9VvCb0vlg4r_18infraware_terminal8executor10completionNtB2_13TabCompletion15get_completions
FNDA:4,_RNvMNtNtCs9VvCb0vlg4r_18infraware_terminal8executor10completionNtB2_13TabCompletion16complete_command
FNDA:6,_RNvMNtNtCs9VvCb0vlg4r_18infraware_terminal8executor10completionNtB2_13TabCompletion17get_common_prefix
FNDA:7,_RNvMNtNtCs9VvCb0vlg4r_18infraware_terminal8executor10completionNtB2_13TabCompletion18complete_file_path
FNDA:311,_RNCNvMNtNtCs9VvCb0vlg4r_18infraware_terminal8executor10completionNtB4_13TabCompletion18complete_file_path0B8_
FNDA:0,_RNCNvNtNtNtCs9VvCb0vlg4r_18infraware_terminal8executor10completion5testss_30test_complete_command_no_match0B9_
FNDA:2,_RNvMNtNtCsdeW3LDTW70x_18infraware_terminal8executor10completionNtB2_13TabCompletion15get_completions
FNDA:4,_RNvMNtNtCsdeW3LDTW70x_18infraware_terminal8executor10completionNtB2_13TabCompletion16complete_command
FNDA:5,_RNvMNtNtCsdeW3LDTW70x_18infraware_terminal8executor10completionNtB2_13TabCompletion17get_common_prefix
FNDA:7,_RNvMNtNtCsdeW3LDTW70x_18infraware_terminal8executor10completionNtB2_13TabCompletion18complete_file_path
FNDA:0,_RNCNvNtNtNtCsdeW3LDTW70x_18infraware_terminal8executor10completion5testss_30test_complete_command_no_match0B9_
FNDA:311,_RNCNvMNtNtCsdeW3LDTW70x_18infraware_terminal8executor10completionNtB4_13TabCompletion18complete_file_path0B8_
FNDA:1,_RNvNtNtNtCsdeW3LDTW70x_18infraware_terminal8executor10completion5testss_21test_complete_command
FNDA:1,_RNvNtNtNtCsdeW3LDTW70x_18infraware_terminal8executor10completion5testss_22test_get_common_prefix
FNDA:1,_RNvNtNtNtCsdeW3LDTW70x_18infraware_terminal8executor10completion5testss_28test_get_common_prefix_empty
FNDA:1,_RNvNtNtNtCsdeW3LDTW70x_18infraware_terminal8executor10completion5testss_28test_get_completions_command
FNDA:1,_RNvNtNtNtCsdeW3LDTW70x_18infraware_terminal8executor10completion5testss_29test_complete_file_path_basic
FNDA:1,_RNvNtNtNtCsdeW3LDTW70x_18infraware_terminal8executor10completion5testss_29test_get_common_prefix_single
FNDA:1,_RNvNtNtNtCsdeW3LDTW70x_18infraware_terminal8executor10completion5testss_30test_complete_command_no_match
FNDA:1,_RNvNtNtNtCsdeW3LDTW70x_18infraware_terminal8executor10completion5testss_30test_get_completions_file_path
FNDA:1,_RNvNtNtNtCsdeW3LDTW70x_18infraware_terminal8executor10completion5testss_31test_complete_file_path_rsplitn
FNDA:1,_RNvNtNtNtCsdeW3LDTW70x_18infraware_terminal8executor10completion5testss_32test_get_common_prefix_no_common
FNDA:1,_RNvNtNtNtCsdeW3LDTW70x_18infraware_terminal8executor10completion5testss_34test_complete_file_path_dot_prefix
FNDA:1,_RNvNtNtNtCsdeW3LDTW70x_18infraware_terminal8executor10completion5testss_34test_complete_file_path_with_slash
FNDA:1,_RNvNtNtNtCsdeW3LDTW70x_18infraware_terminal8executor10completion5testss_35test_complete_command_deduplication
FNDA:1,_RNvNtNtNtCsdeW3LDTW70x_18infraware_terminal8executor10completion5testss_35test_complete_file_path_single_word
FNDA:1,_RNvNtNtNtCsdeW3LDTW70x_18infraware_terminal8executor10completion5testss_36test_get_common_prefix_partial_match
FNDA:1,_RNvNtNtNtCsdeW3LDTW70x_18infraware_terminal8executor10completion5testss_37test_complete_file_path_empty_partial
FNF:22
FNH:21
DA:11,4
DA:13,4
DA:14,2
DA:17,2
DA:19,4
DA:22,8
DA:23,8
DA:26,8
DA:27,480
DA:28,480
DA:29,113344
DA:30,113344
DA:31,113344
DA:36,778
DA:37,778
DA:38,778
DA:39,778
DA:40,778
DA:41,0
DA:47,112566
DA:48,0
DA:50,56
DA:52,0
DA:54,8
DA:55,8
DA:56,8
DA:57,8
DA:60,14
DA:62,14
DA:63,14
DA:64,0
DA:65,14
DA:67,14
DA:68,14
DA:71,14
DA:72,6
DA:73,6
DA:75,8
DA:79,14
DA:80,0
DA:81,0
DA:83,0
DA:86,14
DA:89,14
DA:91,14
DA:92,1064
DA:93,1064
DA:94,1064
DA:96,622
DA:97,600
DA:98,22
DA:100,578
DA:102,22
DA:103,22
DA:105,0
DA:109,622
DA:110,48
DA:111,574
DA:112,574
DA:113,574
DA:114,442
DA:115,0
DA:117,0
DA:119,14
DA:120,14
DA:121,14
DA:124,11
DA:125,11
DA:126,2
DA:127,9
DA:129,9
DA:130,2
DA:131,7
DA:133,7
DA:134,9
DA:135,42
DA:136,35
DA:137,35
DA:138,2
DA:139,33
DA:143,5
DA:144,11
DA:152,2
DA:153,2
DA:155,2
DA:156,2
DA:159,2
DA:160,2
DA:162,2
DA:163,2
DA:164,0
DA:165,0
DA:166,0
DA:168,2
DA:171,2
DA:173,2
DA:174,2
DA:175,2
DA:176,2
DA:177,2
DA:178,2
DA:179,2
DA:182,2
DA:184,2
DA:185,2
DA:186,2
DA:189,2
DA:191,2
DA:193,2
DA:196,2
DA:198,2
DA:200,2
DA:203,2
DA:205,2
DA:207,2
DA:210,2
DA:212,2
DA:214,2
DA:217,2
DA:218,2
DA:220,2
DA:223,2
DA:225,2
DA:227,2
DA:230,2
DA:232,2
DA:234,2
DA:237,2
DA:238,2
DA:239,2
DA:240,2
DA:241,2
DA:243,2
DA:244,2
DA:245,2
DA:248,2
DA:249,2
DA:250,2
DA:251,2
DA:252,2
DA:255,2
DA:256,2
DA:257,2
DA:258,2
DA:259,2
DA:262,2
DA:263,2
DA:264,2
DA:265,2
DA:266,2
DA:268,2
DA:269,2
DA:270,2
DA:273,2
DA:274,2
DA:275,2
DA:276,2
DA:277,2
BRF:0
BRH:0
LF:160
LH:146
end_of_record
SF:/home/crist/infraware-terminal/terminal-app/src/executor/facade.rs
FN:113,_RNCNCNvMs_NtNtCskvicDDTzzc8_18infraware_terminal8executor6facadeNtB8_22CommandExecutionFacade21execute_with_fallback00Bc_
FN:142,_RNCNvMs_NtNtCskvicDDTzzc8_18infraware_terminal8executor6facadeNtB6_22CommandExecutionFacade18execute_or_install0Ba_
FN:107,_RNCNvMs_NtNtCskvicDDTzzc8_18infraware_terminal8executor6facadeNtB6_22CommandExecutionFacade21execute_with_fallback0Ba_
FN:32,_RNvMNtNtCskvicDDTzzc8_18infraware_terminal8executor6facadeNtB2_15ExecutionResult10is_success
FN:47,_RNvMNtNtCskvicDDTzzc8_18infraware_terminal8executor6facadeNtB2_15ExecutionResult13error_message
FN:38,_RNvMNtNtCskvicDDTzzc8_18infraware_terminal8executor6facadeNtB2_15ExecutionResult6output
FN:85,_RNvMs_NtNtCskvicDDTzzc8_18infraware_terminal8executor6facadeNtB4_22CommandExecutionFacade14with_installer
FN:137,_RNvMs_NtNtCskvicDDTzzc8_18infraware_terminal8executor6facadeNtB4_22CommandExecutionFacade18execute_or_install
FN:180,_RNvMs_NtNtCskvicDDTzzc8_18infraware_terminal8executor6facadeNtB4_22CommandExecutionFacade19get_package_manager
FN:174,_RNvMs_NtNtCskvicDDTzzc8_18infraware_terminal8executor6facadeNtB4_22CommandExecutionFacade20can_install_packages
FN:168,_RNvMs_NtNtCskvicDDTzzc8_18infraware_terminal8executor6facadeNtB4_22CommandExecutionFacade20is_command_available
FN:103,_RNvMs_NtNtCskvicDDTzzc8_18infraware_terminal8executor6facadeNtB4_22CommandExecutionFacade21execute_with_fallback
FN:78,_RNvMs_NtNtCskvicDDTzzc8_18infraware_terminal8executor6facadeNtB4_22CommandExecutionFacade3new
FN:186,_RNvXs0_NtNtCskvicDDTzzc8_18infraware_terminal8executor6facadeNtB5_22CommandExecutionFacadeNtNtCs5GmCzIpY9Qj_4core7default7Default7default
FN:142,_RNCNvMs_NtNtCs9VvCb0vlg4r_18infraware_terminal8executor6facadeNtB6_22CommandExecutionFacade18execute_or_install0Ba_
FN:85,_RNvMs_NtNtCs9VvCb0vlg4r_18infraware_terminal8executor6facadeNtB4_22CommandExecutionFacade14with_installer
FN:137,_RNvMs_NtNtCs9VvCb0vlg4r_18infraware_terminal8executor6facadeNtB4_22CommandExecutionFacade18execute_or_install
FN:180,_RNvMs_NtNtCs9VvCb0vlg4r_18infraware_terminal8executor6facadeNtB4_22CommandExecutionFacade19get_package_manager
FN:186,_RNvXs0_NtNtCs9VvCb0vlg4r_18infraware_terminal8executor6facadeNtB5_22CommandExecutionFacadeNtNtCs5GmCzIpY9Qj_4core7default7Default7default
FN:282,_RNvNtNtNtCs9VvCb0vlg4r_18infraware_terminal8executor6facade5testss_20test_facade_creation
FN:288,_RNvNtNtNtCs9VvCb0vlg4r_18infraware_terminal8executor6facade5testss_25test_is_command_available
FN:244,_RNvNtNtNtCs9VvCb0vlg4r_18infraware_terminal8executor6facade5testss_28test_execution_result_output
FN:196,_RNvNtNtNtCs9VvCb0vlg4r_18infraware_terminal8executor6facade5testss_29test_execute_existing_command
FN:208,_RNvNtNtNtCs9VvCb0vlg4r_18infraware_terminal8executor6facade5testss_32test_execute_nonexistent_command
FN:227,_RNvNtNtNtCs9VvCb0vlg4r_18infraware_terminal8executor6facade5testss_32test_execution_result_is_success
FN:263,_RNvNtNtNtCs9VvCb0vlg4r_18infraware_terminal8executor6facade5testss_35test_execution_result_error_message
FN:32,_RNvMNtNtCs9VvCb0vlg4r_18infraware_terminal8executor6facadeNtB2_15ExecutionResult10is_success
FN:47,_RNvMNtNtCs9VvCb0vlg4r_18infraware_terminal8executor6facadeNtB2_15ExecutionResult13error_message
FN:38,_RNvMNtNtCs9VvCb0vlg4r_18infraware_terminal8executor6facadeNtB2_15ExecutionResult6output
FN:174,_RNvMs_NtNtCs9VvCb0vlg4r_18infraware_terminal8executor6facadeNtB4_22CommandExecutionFacade20can_install_packages
FN:168,_RNvMs_NtNtCs9VvCb0vlg4r_18infraware_terminal8executor6facadeNtB4_22CommandExecutionFacade20is_command_available
FN:103,_RNvMs_NtNtCs9VvCb0vlg4r_18infraware_terminal8executor6facadeNtB4_22CommandExecutionFacade21execute_with_fallback
FN:78,_RNvMs_NtNtCs9VvCb0vlg4r_18infraware_terminal8executor6facadeNtB4_22CommandExecutionFacade3new
FN:113,_RNCNCNvMs_NtNtCs9VvCb0vlg4r_18infraware_terminal8executor6facadeNtB8_22CommandExecutionFacade21execute_with_fallback00Bc_
FN:107,_RNCNvMs_NtNtCs9VvCb0vlg4r_18infraware_terminal8executor6facadeNtB6_22CommandExecutionFacade21execute_with_fallback0Ba_
FN:196,_RNCNvNtNtNtCs9VvCb0vlg4r_18infraware_terminal8executor6facade5testss_29test_execute_existing_command0B9_
FN:208,_RNCNvNtNtNtCs9VvCb0vlg4r_18infraware_terminal8executor6facade5testss_32test_execute_nonexistent_command0B9_
FN:32,_RNvMNtNtCsdeW3LDTW70x_18infraware_terminal8executor6facadeNtB2_15ExecutionResult10is_success
FN:47,_RNvMNtNtCsdeW3LDTW70x_18infraware_terminal8executor6facadeNtB2_15ExecutionResult13error_message
FN:38,_RNvMNtNtCsdeW3LDTW70x_18infraware_terminal8executor6facadeNtB2_15ExecutionResult6output
FN:174,_RNvMs_NtNtCsdeW3LDTW70x_18infraware_terminal8executor6facadeNtB4_22CommandExecutionFacade20can_install_packages
FN:168,_RNvMs_NtNtCsdeW3LDTW70x_18infraware_terminal8executor6facadeNtB4_22CommandExecutionFacade20is_command_available
FN:103,_RNvMs_NtNtCsdeW3LDTW70x_18infraware_terminal8executor6facadeNtB4_22CommandExecutionFacade21execute_with_fallback
FN:78,_RNvMs_NtNtCsdeW3LDTW70x_18infraware_terminal8executor6facadeNtB4_22CommandExecutionFacade3new
FN:282,_RNvNtNtNtCsdeW3LDTW70x_18infraware_terminal8executor6facade5testss_20test_facade_creation
FN:288,_RNvNtNtNtCsdeW3LDTW70x_18infraware_terminal8executor6facade5testss_25test_is_command_available
FN:244,_RNvNtNtNtCsdeW3LDTW70x_18infraware_terminal8executor6facade5testss_28test_execution_result_output
FN:196,_RNvNtNtNtCsdeW3LDTW70x_18infraware_terminal8executor6facade5testss_29test_execute_existing_command
FN:208,_RNvNtNtNtCsdeW3LDTW70x_18infraware_terminal8executor6facade5testss_32test_execute_nonexistent_command
FN:227,_RNvNtNtNtCsdeW3LDTW70x_18infraware_terminal8executor6facade5testss_32test_execution_result_is_success
FN:263,_RNvNtNtNtCsdeW3LDTW70x_18infraware_terminal8executor6facade5testss_35test_execution_result_error_message
FN:196,_RNCNvNtNtNtCsdeW3LDTW70x_18infraware_terminal8executor6facade5testss_29test_execute_existing_command0B9_
FN:208,_RNCNvNtNtNtCsdeW3LDTW70x_18infraware_terminal8executor6facade5testss_32test_execute_nonexistent_command0B9_
FN:113,_RNCNCNvMs_NtNtCsdeW3LDTW70x_18infraware_terminal8executor6facadeNtB8_22CommandExecutionFacade21execute_with_fallback00Bc_
FN:107,_RNCNvMs_NtNtCsdeW3LDTW70x_18infraware_terminal8executor6facadeNtB6_22CommandExecutionFacade21execute_with_fallback0Ba_
FN:142,_RNCNvMs_NtNtCsdeW3LDTW70x_18infraware_terminal8executor6facadeNtB6_22CommandExecutionFacade18execute_or_install0Ba_
FN:85,_RNvMs_NtNtCsdeW3LDTW70x_18infraware_terminal8executor6facadeNtB4_22CommandExecutionFacade14with_installer
FN:137,_RNvMs_NtNtCsdeW3LDTW70x_18infraware_terminal8executor6facadeNtB4_22CommandExecutionFacade18execute_or_install
FN:180,_RNvMs_NtNtCsdeW3LDTW70x_18infraware_terminal8executor6facadeNtB4_22CommandExecutionFacade19get_package_manager
FN:186,_RNvXs0_NtNtCsdeW3LDTW70x_18infraware_terminal8executor6facadeNtB5_22CommandExecutionFacadeNtNtCs5GmCzIpY9Qj_4core7default7Default7default
FNDA:0,_RNCNCNvMs_NtNtCskvicDDTzzc8_18infraware_terminal8executor6facadeNtB8_22CommandExecutionFacade21execute_with_fallback00Bc_
FNDA:0,_RNCNvMs_NtNtCskvicDDTzzc8_18infraware_terminal8executor6facadeNtB6_22CommandExecutionFacade18execute_or_install0Ba_
FNDA:0,_RNCNvMs_NtNtCskvicDDTzzc8_18infraware_terminal8executor6facadeNtB6_22CommandExecutionFacade21execute_with_fallback0Ba_
FNDA:0,_RNvMNtNtCskvicDDTzzc8_18infraware_terminal8executor6facadeNtB2_15ExecutionResult10is_success
FNDA:0,_RNvMNtNtCskvicDDTzzc8_18infraware_terminal8executor6facadeNtB2_15ExecutionResult13error_message
FNDA:0,_RNvMNtNtCskvicDDTzzc8_18infraware_terminal8executor6facadeNtB2_15ExecutionResult6output
FNDA:0,_RNvMs_NtNtCskvicDDTzzc8_18infraware_terminal8executor6facadeNtB4_22CommandExecutionFacade14with_installer
FNDA:0,_RNvMs_NtNtCskvicDDTzzc8_18infraware_terminal8executor6facadeNtB4_22CommandExecutionFacade18execute_or_install
FNDA:0,_RNvMs_NtNtCskvicDDTzzc8_18infraware_terminal8executor6facadeNtB4_22CommandExecutionFacade19get_package_manager
FNDA:0,_RNvMs_NtNtCskvicDDTzzc8_18infraware_terminal8executor6facadeNtB4_22CommandExecutionFacade20can_install_packages
FNDA:0,_RNvMs_NtNtCskvicDDTzzc8_18infraware_terminal8executor6facadeNtB4_22CommandExecutionFacade20is_command_available
FNDA:0,_RNvMs_NtNtCskvicDDTzzc8_18infraware_terminal8executor6facadeNtB4_22CommandExecutionFacade21execute_with_fallback
FNDA:0,_RNvMs_NtNtCskvicDDTzzc8_18infraware_terminal8executor6facadeNtB4_22CommandExecutionFacade3new
FNDA:0,_RNvXs0_NtNtCskvicDDTzzc8_18infraware_terminal8executor6facadeNtB5_22CommandExecutionFacadeNtNtCs5GmCzIpY9Qj_4core7default7Default7default
FNDA:0,_RNCNvMs_NtNtCs9VvCb0vlg4r_18infraware_terminal8executor6facadeNtB6_22CommandExecutionFacade18execute_or_install0Ba_
FNDA:0,_RNvMs_NtNtCs9VvCb0vlg4r_18infraware_terminal8executor6facadeNtB4_22CommandExecutionFacade14with_installer
FNDA:0,_RNvMs_NtNtCs9VvCb0vlg4r_18infraware_terminal8executor6facadeNtB4_22CommandExecutionFacade18execute_or_install
FNDA:0,_RNvMs_NtNtCs9VvCb0vlg4r_18infraware_terminal8executor6facadeNtB4_22CommandExecutionFacade19get_package_manager
FNDA:0,_RNvXs0_NtNtCs9VvCb0vlg4r_18infraware_terminal8executor6facadeNtB5_22CommandExecutionFacadeNtNtCs5GmCzIpY9Qj_4core7default7Default7default
FNDA:1,_RNvNtNtNtCs9VvCb0vlg4r_18infraware_terminal8executor6facade5testss_20test_facade_creation
FNDA:1,_RNvNtNtNtCs9VvCb0vlg4r_18infraware_terminal8executor6facade5testss_25test_is_command_available
FNDA:1,_RNvNtNtNtCs9VvCb0vlg4r_18infraware_terminal8executor6facade5testss_28test_execution_result_output
FNDA:1,_RNvNtNtNtCs9VvCb0vlg4r_18infraware_terminal8executor6facade5testss_29test_execute_existing_command
FNDA:1,_RNvNtNtNtCs9VvCb0vlg4r_18infraware_terminal8executor6facade5testss_32test_execute_nonexistent_command
FNDA:1,_RNvNtNtNtCs9VvCb0vlg4r_18infraware_terminal8executor6facade5testss_32test_execution_result_is_success
FNDA:1,_RNvNtNtNtCs9VvCb0vlg4r_18infraware_terminal8executor6facade5testss_35test_execution_result_error_message
FNDA:4,_RNvMNtNtCs9VvCb0vlg4r_18infraware_terminal8executor6facadeNtB2_15ExecutionResult10is_success
FNDA:4,_RNvMNtNtCs9VvCb0vlg4r_18infraware_terminal8executor6facadeNtB2_15ExecutionResult13error_message
FNDA:2,_RNvMNtNtCs9VvCb0vlg4r_18infraware_terminal8executor6facadeNtB2_15ExecutionResult6output
FNDA:1,_RNvMs_NtNtCs9VvCb0vlg4r_18infraware_terminal8executor6facadeNtB4_22CommandExecutionFacade20can_install_packages
FNDA:2,_RNvMs_NtNtCs9VvCb0vlg4r_18infraware_terminal8executor6facadeNtB4_22CommandExecutionFacade20is_command_available
FNDA:2,_RNvMs_NtNtCs9VvCb0vlg4r_18infraware_terminal8executor6facadeNtB4_22CommandExecutionFacade21execute_with_fallback
FNDA:4,_RNvMs_NtNtCs9VvCb0vlg4r_18infraware_terminal8executor6facadeNtB4_22CommandExecutionFacade3new
FNDA:1,_RNCNCNvMs_NtNtCs9VvCb0vlg4r_18infraware_terminal8executor6facadeNtB8_22CommandExecutionFacade21execute_with_fallback00Bc_
FNDA:2,_RNCNvMs_NtNtCs9VvCb0vlg4r_18infraware_terminal8executor6facadeNtB6_22CommandExecutionFacade21execute_with_fallback0Ba_
FNDA:1,_RNCNvNtNtNtCs9VvCb0vlg4r_18infraware_terminal8executor6facade5testss_29test_execute_existing_command0B9_
FNDA:1,_RNCNvNtNtNtCs9VvCb0vlg4r_18infraware_terminal8executor6facade5testss_32test_execute_nonexistent_command0B9_
FNDA:4,_RNvMNtNtCsdeW3LDTW70x_18infraware_terminal8executor6facadeNtB2_15ExecutionResult10is_success
FNDA:4,_RNvMNtNtCsdeW3LDTW70x_18infraware_terminal8executor6facadeNtB2_15ExecutionResult13error_message
FNDA:2,_RNvMNtNtCsdeW3LDTW70x_18infraware_terminal8executor6facadeNtB2_15ExecutionResult6output
FNDA:1,_RNvMs_NtNtCsdeW3LDTW70x_18infraware_terminal8executor6facadeNtB4_22CommandExecutionFacade20can_install_packages
FNDA:2,_RNvMs_NtNtCsdeW3LDTW70x_18infraware_terminal8executor6facadeNtB4_22CommandExecutionFacade20is_command_available
FNDA:2,_RNvMs_NtNtCsdeW3LDTW70x_18infraware_terminal8executor6facadeNtB4_22CommandExecutionFacade21execute_with_fallback
FNDA:4,_RNvMs_NtNtCsdeW3LDTW70x_18infraware_terminal8executor6facadeNtB4_22CommandExecutionFacade3new
FNDA:1,_RNvNtNtNtCsdeW3LDTW70x_18infraware_terminal8executor6facade5testss_20test_facade_creation
FNDA:1,_RNvNtNtNtCsdeW3LDTW70x_18infraware_terminal8executor6facade5testss_25test_is_command_available
FNDA:1,_RNvNtNtNtCsdeW3LDTW70x_18infraware_terminal8executor6facade5testss_28test_execution_result_output
FNDA:1,_RNvNtNtNtCsdeW3LDTW70x_18infraware_terminal8executor6facade5testss_29test_execute_existing_command
FNDA:1,_RNvNtNtNtCsdeW3LDTW70x_18infraware_terminal8executor6facade5testss_32test_execute_nonexistent_command
FNDA:1,_RNvNtNtNtCsdeW3LDTW70x_18infraware_terminal8executor6facade5testss_32test_execution_result_is_success
FNDA:1,_RNvNtNtNtCsdeW3LDTW70x_18infraware_terminal8executor6facade5testss_35test_execution_result_error_message
FNDA:1,_RNCNvNtNtNtCsdeW3LDTW70x_18infraware_terminal8executor6facade5testss_29test_execute_existing_command0B9_
FNDA:1,_RNCNvNtNtNtCsdeW3LDTW70x_18infraware_terminal8executor6facade5testss_32test_execute_nonexistent_command0B9_
FNDA:1,_RNCNCNvMs_NtNtCsdeW3LDTW70x_18infraware_terminal8executor6facadeNtB8_22CommandExecutionFacade21execute_with_fallback00Bc_
FNDA:2,_RNCNvMs_NtNtCsdeW3LDTW70x_18infraware_terminal8executor6facadeNtB6_22CommandExecutionFacade21execute_with_fallback0Ba_
FNDA:0,_RNCNvMs_NtNtCsdeW3LDTW70x_18infraware_terminal8executor6facadeNtB6_22CommandExecutionFacade18execute_or_install0Ba_
FNDA:0,_RNvMs_NtNtCsdeW3LDTW70x_18infraware_terminal8executor6facadeNtB4_22CommandExecutionFacade14with_installer
FNDA:0,_RNvMs_NtNtCsdeW3LDTW70x_18infraware_terminal8executor6facadeNtB4_22CommandExecutionFacade18execute_or_install
FNDA:0,_RNvMs_NtNtCsdeW3LDTW70x_18infraware_terminal8executor6facadeNtB4_22CommandExecutionFacade19get_package_manager
FNDA:0,_RNvXs0_NtNtCsdeW3LDTW70x_18infraware_terminal8executor6facadeNtB5_22CommandExecutionFacadeNtNtCs5GmCzIpY9Qj_4core7default7Default7default
FNF:23
FNH:18
DA:32,8
DA:33,8
DA:34,8
DA:38,4
DA:39,4
DA:40,2
DA:41,2
DA:43,4
DA:47,8
DA:48,8
DA:50,6
DA:51,6
DA:52,6
DA:54,6
DA:55,6
DA:56,6
DA:57,6
DA:58,6
DA:59,0
DA:60,6
DA:62,0
DA:63,0
DA:65,2
DA:67,8
DA:78,8
DA:79,8
DA:80,8
DA:81,8
DA:82,8
DA:85,0
DA:86,0
DA:87,0
DA:103,4
DA:104,4
DA:105,4
DA:106,4
DA:107,4
DA:109,4
DA:111,2
DA:112,2
DA:113,2
DA:115,2
DA:118,2
DA:119,2
DA:120,0
DA:121,0
DA:122,0
DA:123,0
DA:125,4
DA:137,0
DA:138,0
DA:139,0
DA:140,0
DA:141,0
DA:142,0
DA:144,0
DA:147,0
DA:148,0
DA:149,0
DA:152,0
DA:153,0
DA:154,0
DA:155,0
DA:156,0
DA:157,0
DA:160,0
DA:161,0
DA:163,0
DA:164,0
DA:168,4
DA:169,4
DA:170,4
DA:174,2
DA:175,2
DA:176,2
DA:180,0
DA:181,0
DA:182,0
DA:186,0
DA:187,0
DA:188,0
DA:196,2
DA:197,2
DA:198,2
DA:199,2
DA:200,2
DA:202,2
DA:203,2
DA:204,2
DA:205,2
DA:208,2
DA:209,2
DA:210,2
DA:211,2
DA:212,2
DA:214,2
DA:215,2
DA:216,2
DA:218,2
DA:219,2
DA:220,2
DA:221,2
DA:222,2
DA:223,2
DA:224,2
DA:227,2
DA:228,2
DA:229,2
DA:230,2
DA:231,2
DA:232,2
DA:233,2
DA:235,2
DA:236,2
DA:237,2
DA:238,2
DA:239,2
DA:240,2
DA:241,2
DA:244,2
DA:245,2
DA:246,2
DA:247,2
DA:248,2
DA:249,2
DA:250,2
DA:252,2
DA:254,2
DA:255,2
DA:256,2
DA:257,2
DA:258,2
DA:259,2
DA:260,2
DA:263,2
DA:264,2
DA:265,2
DA:266,2
DA:267,2
DA:268,2
DA:269,2
DA:270,2
DA:271,2
DA:273,2
DA:274,2
DA:275,2
DA:276,2
DA:277,2
DA:278,2
DA:279,2
DA:282,2
DA:283,2
DA:284,2
DA:285,2
DA:288,2
DA:289,2
DA:290,2
DA:291,2
DA:292,2
BRF:0
BRH:0
LF:169
LH:131
end_of_record
SF:/home/crist/infraware-terminal/terminal-app/src/executor/install.rs
FN:70,_RNCNvMNtNtCsgbM7bOyfJDi_18infraware_terminal8executor7installNtB4_16PackageInstaller12is_available0B8_
FN:75,_RNCNvMNtNtCsgbM7bOyfJDi_18infraware_terminal8executor7installNtB4_16PackageInstaller19get_package_manager0B8_
FN:83,_RNCNvMNtNtCsgbM7bOyfJDi_18infraware_terminal8executor7installNtB4_16PackageInstaller22get_available_managers0B8_
FN:84,_RNCNvMNtNtCsgbM7bOyfJDi_18infraware_terminal8executor7installNtB4_16PackageInstaller22get_available_managerss_0B8_
FN:62,_RNCNvMNtNtCsgbM7bOyfJDi_18infraware_terminal8executor7installNtB4_16PackageInstaller22select_package_manager0B8_
FN:64,_RNCNvMNtNtCsgbM7bOyfJDi_18infraware_terminal8executor7installNtB4_16PackageInstaller22select_package_managers0_0B8_
FN:65,_RNCNvMNtNtCsgbM7bOyfJDi_18infraware_terminal8executor7installNtB4_16PackageInstaller22select_package_managers1_0B8_
FN:63,_RNCNvMNtNtCsgbM7bOyfJDi_18infraware_terminal8executor7installNtB4_16PackageInstaller22select_package_managers_0B8_
FN:112,_RNCNvMs0_NtNtCsgbM7bOyfJDi_18infraware_terminal8executor7installNtB7_16PackageInstaller26get_package_manager_static0Bb_
FN:53,_RNCNvMNtNtCskvicDDTzzc8_18infraware_terminal8executor7installNtB4_16PackageInstaller15install_package0B8_
FN:75,_RNCNvMNtNtCskvicDDTzzc8_18infraware_terminal8executor7installNtB4_16PackageInstaller19get_package_manager0B8_
FN:83,_RNCNvMNtNtCskvicDDTzzc8_18infraware_terminal8executor7installNtB4_16PackageInstaller22get_available_managers0B8_
FN:84,_RNCNvMNtNtCskvicDDTzzc8_18infraware_terminal8executor7installNtB4_16PackageInstaller22get_available_managerss_0B8_
FN:62,_RNCNvMNtNtCskvicDDTzzc8_18infraware_terminal8executor7installNtB4_16PackageInstaller22select_package_manager0B8_
FN:64,_RNCNvMNtNtCskvicDDTzzc8_18infraware_terminal8executor7installNtB4_16PackageInstaller22select_package_managers0_0B8_
FN:65,_RNCNvMNtNtCskvicDDTzzc8_18infraware_terminal8executor7installNtB4_16PackageInstaller22select_package_managers1_0B8_
FN:63,_RNCNvMNtNtCskvicDDTzzc8_18infraware_terminal8executor7installNtB4_16PackageInstaller22select_package_managers_0B8_
FN:99,_RNCNvMs0_NtNtCskvicDDTzzc8_18infraware_terminal8executor7installNtB7_16PackageInstaller22install_package_static0Bb_
FN:112,_RNCNvMs0_NtNtCskvicDDTzzc8_18infraware_terminal8executor7installNtB7_16PackageInstaller26get_package_manager_static0Bb_
FN:36,_RNvMNtNtCskvicDDTzzc8_18infraware_terminal8executor7installNtB2_16PackageInstaller13with_managers
FN:53,_RNvMNtNtCskvicDDTzzc8_18infraware_terminal8executor7installNtB2_16PackageInstaller15install_package
FN:74,_RNvMNtNtCskvicDDTzzc8_18infraware_terminal8executor7installNtB2_16PackageInstaller19get_package_manager
FN:80,_RNvMNtNtCskvicDDTzzc8_18infraware_terminal8executor7installNtB2_16PackageInstaller22get_available_managers
FN:59,_RNvMNtNtCskvicDDTzzc8_18infraware_terminal8executor7installNtB2_16PackageInstaller22select_package_manager
FN:42,_RNvMNtNtCskvicDDTzzc8_18infraware_terminal8executor7installNtB2_16PackageInstaller8register
FN:99,_RNvMs0_NtNtCskvicDDTzzc8_18infraware_terminal8executor7installNtB5_16PackageInstaller22install_package_static
FN:111,_RNvMs0_NtNtCskvicDDTzzc8_18infraware_terminal8executor7installNtB5_16PackageInstaller26get_package_manager_static
FN:90,_RNvXs_NtNtCskvicDDTzzc8_18infraware_terminal8executor7installNtB4_16PackageInstallerNtNtCs5GmCzIpY9Qj_4core7default7Default7default
FN:69,_RNvMNtNtCskvicDDTzzc8_18infraware_terminal8executor7installNtB2_16PackageInstaller12is_available
FN:20,_RNvMNtNtCskvicDDTzzc8_18infraware_terminal8executor7installNtB2_16PackageInstaller3new
FN:105,_RNvMs0_NtNtCskvicDDTzzc8_18infraware_terminal8executor7installNtB5_16PackageInstaller19is_available_static
FN:70,_RNCNvMNtNtCskvicDDTzzc8_18infraware_terminal8executor7installNtB4_16PackageInstaller12is_available0B8_
FN:127,_RNvNtNtNtCs9VvCb0vlg4r_18infraware_terminal8executor7install5testss_17test_is_available
FN:143,_RNvNtNtNtCs9VvCb0vlg4r_18infraware_terminal8executor7install5testss_19test_static_methods
FN:150,_RNvNtNtNtCs9VvCb0vlg4r_18infraware_terminal8executor7install5testss_20test_custom_managers
FN:121,_RNvNtNtNtCs9VvCb0vlg4r_18infraware_terminal8executor7install5testss_23test_installer_creation
FN:134,_RNvNtNtNtCs9VvCb0vlg4r_18infraware_terminal8executor7install5testss_27test_get_available_managers
FN:53,_RNCNvMNtNtCs9VvCb0vlg4r_18infraware_terminal8executor7installNtB4_16PackageInstaller15install_package0B8_
FN:99,_RNCNvMs0_NtNtCs9VvCb0vlg4r_18infraware_terminal8executor7installNtB7_16PackageInstaller22install_package_static0Bb_
FN:53,_RNvMNtNtCs9VvCb0vlg4r_18infraware_terminal8executor7installNtB2_16PackageInstaller15install_package
FN:42,_RNvMNtNtCs9VvCb0vlg4r_18infraware_terminal8executor7installNtB2_16PackageInstaller8register
FN:99,_RNvMs0_NtNtCs9VvCb0vlg4r_18infraware_terminal8executor7installNtB5_16PackageInstaller22install_package_static
FN:90,_RNvXs_NtNtCs9VvCb0vlg4r_18infraware_terminal8executor7installNtB4_16PackageInstallerNtNtCs5GmCzIpY9Qj_4core7default7Default7default
FN:70,_RNCNvMNtNtCs9VvCb0vlg4r_18infraware_terminal8executor7installNtB4_16PackageInstaller12is_available0B8_
FN:75,_RNCNvMNtNtCs9VvCb0vlg4r_18infraware_terminal8executor7installNtB4_16PackageInstaller19get_package_manager0B8_
FN:83,_RNCNvMNtNtCs9VvCb0vlg4r_18infraware_terminal8executor7installNtB4_16PackageInstaller22get_available_managers0B8_
FN:84,_RNCNvMNtNtCs9VvCb0vlg4r_18infraware_terminal8executor7installNtB4_16PackageInstaller22get_available_managerss_0B8_
FN:62,_RNCNvMNtNtCs9VvCb0vlg4r_18infraware_terminal8executor7installNtB4_16PackageInstaller22select_package_manager0B8_
FN:64,_RNCNvMNtNtCs9VvCb0vlg4r_18infraware_terminal8executor7installNtB4_16PackageInstaller22select_package_managers0_0B8_
FN:65,_RNCNvMNtNtCs9VvCb0vlg4r_18infraware_terminal8executor7installNtB4_16PackageInstaller22select_package_managers1_0B8_
FN:63,_RNCNvMNtNtCs9VvCb0vlg4r_18infraware_terminal8executor7installNtB4_16PackageInstaller22select_package_managers_0B8_
FN:112,_RNCNvMs0_NtNtCs9VvCb0vlg4r_18infraware_terminal8executor7installNtB7_16PackageInstaller26get_package_manager_static0Bb_
FN:150,_RNCNvNtNtNtCs9VvCb0vlg4r_18infraware_terminal8executor7install5testss_20test_custom_managers0B9_
FN:69,_RNvMNtNtCs9VvCb0vlg4r_18infraware_terminal8executor7installNtB2_16PackageInstaller12is_available
FN:36,_RNvMNtNtCs9VvCb0vlg4r_18infraware_terminal8executor7installNtB2_16PackageInstaller13with_managers
FN:74,_RNvMNtNtCs9VvCb0vlg4r_18infraware_terminal8executor7installNtB2_16PackageInstaller19get_package_manager
FN:80,_RNvMNtNtCs9VvCb0vlg4r_18infraware_terminal8executor7installNtB2_16PackageInstaller22get_available_managers
FN:59,_RNvMNtNtCs9VvCb0vlg4r_18infraware_terminal8executor7installNtB2_16PackageInstaller22select_package_manager
FN:20,_RNvMNtNtCs9VvCb0vlg4r_18infraware_terminal8executor7installNtB2_16PackageInstaller3new
FN:105,_RNvMs0_NtNtCs9VvCb0vlg4r_18infraware_terminal8executor7installNtB5_16PackageInstaller19is_available_static
FN:111,_RNvMs0_NtNtCs9VvCb0vlg4r_18infraware_terminal8executor7installNtB5_16PackageInstaller26get_package_manager_static
FN:127,_RNvNtNtNtCsdeW3LDTW70x_18infraware_terminal8executor7install5testss_17test_is_available
FN:143,_RNvNtNtNtCsdeW3LDTW70x_18infraware_terminal8executor7install5testss_19test_static_methods
FN:150,_RNvNtNtNtCsdeW3LDTW70x_18infraware_terminal8executor7install5testss_20test_custom_managers
FN:121,_RNvNtNtNtCsdeW3LDTW70x_18infraware_terminal8executor7install5testss_23test_installer_creation
FN:134,_RNvNtNtNtCsdeW3LDTW70x_18infraware_terminal8executor7install5testss_27test_get_available_managers
FN:69,_RNvMNtNtCsdeW3LDTW70x_18infraware_terminal8executor7installNtB2_16PackageInstaller12is_available
FN:36,_RNvMNtNtCsdeW3LDTW70x_18infraware_terminal8executor7installNtB2_16PackageInstaller13with_managers
FN:74,_RNvMNtNtCsdeW3LDTW70x_18infraware_terminal8executor7installNtB2_16PackageInstaller19get_package_manager
FN:80,_RNvMNtNtCsdeW3LDTW70x_18infraware_terminal8executor7installNtB2_16PackageInstaller22get_available_managers
FN:59,_RNvMNtNtCsdeW3LDTW70x_18infraware_terminal8executor7installNtB2_16PackageInstaller22select_package_manager
FN:20,_RNvMNtNtCsdeW3LDTW70x_18infraware_terminal8executor7installNtB2_16PackageInstaller3new
FN:105,_RNvMs0_NtNtCsdeW3LDTW70x_18infraware_terminal8executor7installNtB5_16PackageInstaller19is_available_static
FN:111,_RNvMs0_NtNtCsdeW3LDTW70x_18infraware_terminal8executor7installNtB5_16PackageInstaller26get_package_manager_static
FN:70,_RNCNvMNtNtCsdeW3LDTW70x_18infraware_terminal8executor7installNtB4_16PackageInstaller12is_available0B8_
FN:75,_RNCNvMNtNtCsdeW3LDTW70x_18infraware_terminal8executor7installNtB4_16PackageInstaller19get_package_manager0B8_
FN:83,_RNCNvMNtNtCsdeW3LDTW70x_18infraware_terminal8executor7installNtB4_16PackageInstaller22get_available_managers0B8_
FN:84,_RNCNvMNtNtCsdeW3LDTW70x_18infraware_terminal8executor7installNtB4_16PackageInstaller22get_available_managerss_0B8_
FN:62,_RNCNvMNtNtCsdeW3LDTW70x_18infraware_terminal8executor7installNtB4_16PackageInstaller22select_package_manager0B8_
FN:64,_RNCNvMNtNtCsdeW3LDTW70x_18infraware_terminal8executor7installNtB4_16PackageInstaller22select_package_managers0_0B8_
FN:65,_RNCNvMNtNtCsdeW3LDTW70x_18infraware_terminal8executor7installNtB4_16PackageInstaller22select_package_managers1_0B8_
FN:63,_RNCNvMNtNtCsdeW3LDTW70x_18infraware_terminal8executor7installNtB4_16PackageInstaller22select_package_managers_0B8_
FN:112,_RNCNvMs0_NtNtCsdeW3LDTW70x_18infraware_terminal8executor7installNtB7_16PackageInstaller26get_package_manager_static0Bb_
FN:53,_RNCNvMNtNtCsdeW3LDTW70x_18infraware_terminal8executor7installNtB4_16PackageInstaller15install_package0B8_
FN:99,_RNCNvMs0_NtNtCsdeW3LDTW70x_18infraware_terminal8executor7installNtB7_16PackageInstaller22install_package_static0Bb_
FN:53,_RNvMNtNtCsdeW3LDTW70x_18infraware_terminal8executor7installNtB2_16PackageInstaller15install_package
FN:42,_RNvMNtNtCsdeW3LDTW70x_18infraware_terminal8executor7installNtB2_16PackageInstaller8register
FN:99,_RNvMs0_NtNtCsdeW3LDTW70x_18infraware_terminal8executor7installNtB5_16PackageInstaller22install_package_static
FN:90,_RNvXs_NtNtCsdeW3LDTW70x_18infraware_terminal8executor7installNtB4_16PackageInstallerNtNtCs5GmCzIpY9Qj_4core7default7Default7default
FN:150,_RNCNvNtNtNtCsdeW3LDTW70x_18infraware_terminal8executor7install5testss_20test_custom_managers0B9_
FNDA:0,_RNCNvMNtNtCsgbM7bOyfJDi_18infraware_terminal8executor7installNtB4_16PackageInstaller12is_available0B8_
FNDA:0,_RNCNvMNtNtCsgbM7bOyfJDi_18infraware_terminal8executor7installNtB4_16PackageInstaller19get_package_manager0B8_
FNDA:0,_RNCNvMNtNtCsgbM7bOyfJDi_18infraware_terminal8executor7installNtB4_16PackageInstaller22get_available_managers0B8_
FNDA:0,_RNCNvMNtNtCsgbM7bOyfJDi_18infraware_terminal8executor7installNtB4_16PackageInstaller22get_available_managerss_0B8_
FNDA:0,_RNCNvMNtNtCsgbM7bOyfJDi_18infraware_terminal8executor7installNtB4_16PackageInstaller22select_package_manager0B8_
FNDA:0,_RNCNvMNtNtCsgbM7bOyfJDi_18infraware_terminal8executor7installNtB4_16PackageInstaller22select_package_managers0_0B8_
FNDA:0,_RNCNvMNtNtCsgbM7bOyfJDi_18infraware_terminal8executor7installNtB4_16PackageInstaller22select_package_managers1_0B8_
FNDA:0,_RNCNvMNtNtCsgbM7bOyfJDi_18infraware_terminal8executor7installNtB4_16PackageInstaller22select_package_managers_0B8_
FNDA:0,_RNCNvMs0_NtNtCsgbM7bOyfJDi_18infraware_terminal8executor7installNtB7_16PackageInstaller26get_package_manager_static0Bb_
FNDA:0,_RNCNvMNtNtCskvicDDTzzc8_18infraware_terminal8executor7installNtB4_16PackageInstaller15install_package0B8_
FNDA:0,_RNCNvMNtNtCskvicDDTzzc8_18infraware_terminal8executor7installNtB4_16PackageInstaller19get_package_manager0B8_
FNDA:0,_RNCNvMNtNtCskvicDDTzzc8_18infraware_terminal8executor7installNtB4_16PackageInstaller22get_available_managers0B8_
FNDA:0,_RNCNvMNtNtCskvicDDTzzc8_18infraware_terminal8executor7installNtB4_16PackageInstaller22get_available_managerss_0B8_
FNDA:0,_RNCNvMNtNtCskvicDDTzzc8_18infraware_terminal8executor7installNtB4_16PackageInstaller22select_package_manager0B8_
FNDA:0,_RNCNvMNtNtCskvicDDTzzc8_18infraware_terminal8executor7installNtB4_16PackageInstaller22select_package_managers0_0B8_
FNDA:0,_RNCNvMNtNtCskvicDDTzzc8_18infraware_terminal8executor7installNtB4_16PackageInstaller22select_package_managers1_0B8_
FNDA:0,_RNCNvMNtNtCskvicDDTzzc8_18infraware_terminal8executor7installNtB4_16PackageInstaller22select_package_managers_0B8_
FNDA:0,_RNCNvMs0_NtNtCskvicDDTzzc8_18infraware_terminal8executor7installNtB7_16PackageInstaller22install_package_static0Bb_
FNDA:0,_RNCNvMs0_NtNtCskvicDDTzzc8_18infraware_terminal8executor7installNtB7_16PackageInstaller26get_package_manager_static0Bb_
FNDA:0,_RNvMNtNtCskvicDDTzzc8_18infraware_terminal8executor7installNtB2_16PackageInstaller13with_managers
FNDA:0,_RNvMNtNtCskvicDDTzzc8_18infraware_terminal8executor7installNtB2_16PackageInstaller15install_package
FNDA:0,_RNvMNtNtCskvicDDTzzc8_18infraware_terminal8executor7installNtB2_16PackageInstaller19get_package_manager
FNDA:0,_RNvMNtNtCskvicDDTzzc8_18infraware_terminal8executor7installNtB2_16PackageInstaller22get_available_managers
FNDA:0,_RNvMNtNtCskvicDDTzzc8_18infraware_terminal8executor7installNtB2_16PackageInstaller22select_package_manager
FNDA:0,_RNvMNtNtCskvicDDTzzc8_18infraware_terminal8executor7installNtB2_16PackageInstaller8register
FNDA:0,_RNvMs0_NtNtCskvicDDTzzc8_18infraware_terminal8executor7installNtB5_16PackageInstaller22install_package_static
FNDA:0,_RNvMs0_NtNtCskvicDDTzzc8_18infraware_terminal8executor7installNtB5_16PackageInstaller26get_package_manager_static
FNDA:0,_RNvXs_NtNtCskvicDDTzzc8_18infraware_terminal8executor7installNtB4_16PackageInstallerNtNtCs5GmCzIpY9Qj_4core7default7Default7default
FNDA:0,_RNvMNtNtCskvicDDTzzc8_18infraware_terminal8executor7installNtB2_16PackageInstaller12is_available
FNDA:0,_RNvMNtNtCskvicDDTzzc8_18infraware_terminal8executor7installNtB2_16PackageInstaller3new
FNDA:0,_RNvMs0_NtNtCskvicDDTzzc8_18infraware_terminal8executor7installNtB5_16PackageInstaller19is_available_static
FNDA:0,_RNCNvMNtNtCskvicDDTzzc8_18infraware_terminal8executor7installNtB4_16PackageInstaller12is_available0B8_
FNDA:1,_RNvNtNtNtCs9VvCb0vlg4r_18infraware_terminal8executor7install5testss_17test_is_available
FNDA:1,_RNvNtNtNtCs9VvCb0vlg4r_18infraware_terminal8executor7install5testss_19test_static_methods
FNDA:1,_RNvNtNtNtCs9VvCb0vlg4r_18infraware_terminal8executor7install5testss_20test_custom_managers
FNDA:1,_RNvNtNtNtCs9VvCb0vlg4r_18infraware_terminal8executor7install5testss_23test_installer_creation
FNDA:1,_RNvNtNtNtCs9VvCb0vlg4r_18infraware_terminal8executor7install5testss_27test_get_available_managers
FNDA:0,_RNCNvMNtNtCs9VvCb0vlg4r_18infraware_terminal8executor7installNtB4_16PackageInstaller15install_package0B8_
FNDA:0,_RNCNvMs0_NtNtCs9VvCb0vlg4r_18infraware_terminal8executor7installNtB7_16PackageInstaller22install_package_static0Bb_
FNDA:0,_RNvMNtNtCs9VvCb0vlg4r_18infraware_terminal8executor7installNtB2_16PackageInstaller15install_package
FNDA:0,_RNvMNtNtCs9VvCb0vlg4r_18infraware_terminal8executor7installNtB2_16PackageInstaller8register
FNDA:0,_RNvMs0_NtNtCs9VvCb0vlg4r_18infraware_terminal8executor7installNtB5_16PackageInstaller22install_package_static
FNDA:0,_RNvXs_NtNtCs9VvCb0vlg4r_18infraware_terminal8executor7installNtB4_16PackageInstallerNtNtCs5GmCzIpY9Qj_4core7default7Default7default
FNDA:5,_RNCNvMNtNtCs9VvCb0vlg4r_18infraware_terminal8executor7installNtB4_16PackageInstaller12is_available0B8_
FNDA:2,_RNCNvMNtNtCs9VvCb0vlg4r_18infraware_terminal8executor7installNtB4_16PackageInstaller19get_package_manager0B8_
FNDA:7,_RNCNvMNtNtCs9VvCb0vlg4r_18infraware_terminal8executor7installNtB4_16PackageInstaller22get_available_managers0B8_
FNDA:1,_RNCNvMNtNtCs9VvCb0vlg4r_18infraware_terminal8executor7installNtB4_16PackageInstaller22get_available_managerss_0B8_
FNDA:14,_RNCNvMNtNtCs9VvCb0vlg4r_18infraware_terminal8executor7installNtB4_16PackageInstaller22select_package_manager0B8_
FNDA:2,_RNCNvMNtNtCs9VvCb0vlg4r_18infraware_terminal8executor7installNtB4_16PackageInstaller22select_package_managers0_0B8_
FNDA:0,_RNCNvMNtNtCs9VvCb0vlg4r_18infraware_terminal8executor7installNtB4_16PackageInstaller22select_package_managers1_0B8_
FNDA:2,_RNCNvMNtNtCs9VvCb0vlg4r_18infraware_terminal8executor7installNtB4_16PackageInstaller22select_package_managers_0B8_
FNDA:1,_RNCNvMs0_NtNtCs9VvCb0vlg4r_18infraware_terminal8executor7installNtB7_16PackageInstaller26get_package_manager_static0Bb_
FNDA:1,_RNCNvNtNtNtCs9VvCb0vlg4r_18infraware_terminal8executor7install5testss_20test_custom_managers0B9_
FNDA:5,_RNvMNtNtCs9VvCb0vlg4r_18infraware_terminal8executor7installNtB2_16PackageInstaller12is_available
FNDA:1,_RNvMNtNtCs9VvCb0vlg4r_18infraware_terminal8executor7installNtB2_16PackageInstaller13with_managers
FNDA:2,_RNvMNtNtCs9VvCb0vlg4r_18infraware_terminal8executor7installNtB2_16PackageInstaller19get_package_manager
FNDA:1,_RNvMNtNtCs9VvCb0vlg4r_18infraware_terminal8executor7installNtB2_16PackageInstaller22get_available_managers
FNDA:2,_RNvMNtNtCs9VvCb0vlg4r_18infraware_terminal8executor7installNtB2_16PackageInstaller22select_package_manager
FNDA:10,_RNvMNtNtCs9VvCb0vlg4r_18infraware_terminal8executor7installNtB2_16PackageInstaller3new
FNDA:2,_RNvMs0_NtNtCs9VvCb0vlg4r_18infraware_terminal8executor7installNtB5_16PackageInstaller19is_available_static
FNDA:1,_RNvMs0_NtNtCs9VvCb0vlg4r_18infraware_terminal8executor7installNtB5_16PackageInstaller26get_package_manager_static
FNDA:1,_RNvNtNtNtCsdeW3LDTW70x_18infraware_terminal8executor7install5testss_17test_is_available
FNDA:1,_RNvNtNtNtCsdeW3LDTW70x_18infraware_terminal8executor7install5testss_19test_static_methods
FNDA:1,_RNvNtNtNtCsdeW3LDTW70x_18infraware_terminal8executor7install5testss_20test_custom_managers
FNDA:1,_RNvNtNtNtCsdeW3LDTW70x_18infraware_terminal8executor7install5testss_23test_installer_creation
FNDA:1,_RNvNtNtNtCsdeW3LDTW70x_18infraware_terminal8executor7install5testss_27test_get_available_managers
FNDA:4,_RNvMNtNtCsdeW3LDTW70x_18infraware_terminal8executor7installNtB2_16PackageInstaller12is_available
FNDA:1,_RNvMNtNtCsdeW3LDTW70x_18infraware_terminal8executor7installNtB2_16PackageInstaller13with_managers
FNDA:2,_RNvMNtNtCsdeW3LDTW70x_18infraware_terminal8executor7installNtB2_16PackageInstaller19get_package_manager
FNDA:1,_RNvMNtNtCsdeW3LDTW70x_18infraware_terminal8executor7installNtB2_16PackageInstaller22get_available_managers
FNDA:2,_RNvMNtNtCsdeW3LDTW70x_18infraware_terminal8executor7installNtB2_16PackageInstaller22select_package_manager
FNDA:9,_RNvMNtNtCsdeW3LDTW70x_18infraware_terminal8executor7installNtB2_16PackageInstaller3new
FNDA:1,_RNvMs0_NtNtCsdeW3LDTW70x_18infraware_terminal8executor7installNtB5_16PackageInstaller19is_available_static
FNDA:1,_RNvMs0_NtNtCsdeW3LDTW70x_18infraware_terminal8executor7installNtB5_16PackageInstaller26get_package_manager_static
FNDA:4,_RNCNvMNtNtCsdeW3LDTW70x_18infraware_terminal8executor7installNtB4_16PackageInstaller12is_available0B8_
FNDA:2,_RNCNvMNtNtCsdeW3LDTW70x_18infraware_terminal8executor7installNtB4_16PackageInstaller19get_package_manager0B8_
FNDA:7,_RNCNvMNtNtCsdeW3LDTW70x_18infraware_terminal8executor7installNtB4_16PackageInstaller22get_available_managers0B8_
FNDA:1,_RNCNvMNtNtCsdeW3LDTW70x_18infraware_terminal8executor7installNtB4_16PackageInstaller22get_available_managerss_0B8_
FNDA:14,_RNCNvMNtNtCsdeW3LDTW70x_18infraware_terminal8executor7installNtB4_16PackageInstaller22select_package_manager0B8_
FNDA:2,_RNCNvMNtNtCsdeW3LDTW70x_18infraware_terminal8executor7installNtB4_16PackageInstaller22select_package_managers0_0B8_
FNDA:0,_RNCNvMNtNtCsdeW3LDTW70x_18infraware_terminal8executor7installNtB4_16PackageInstaller22select_package_managers1_0B8_
FNDA:2,_RNCNvMNtNtCsdeW3LDTW70x_18infraware_terminal8executor7installNtB4_16PackageInstaller22select_package_managers_0B8_
FNDA:1,_RNCNvMs0_NtNtCsdeW3LDTW70x_18infraware_terminal8executor7installNtB7_16PackageInstaller26get_package_manager_static0Bb_
FNDA:0,_RNCNvMNtNtCsdeW3LDTW70x_18infraware_terminal8executor7installNtB4_16PackageInstaller15install_package0B8_
FNDA:0,_RNCNvMs0_NtNtCsdeW3LDTW70x_18infraware_terminal8executor7installNtB7_16PackageInstaller22install_package_static0Bb_
FNDA:0,_RNvMNtNtCsdeW3LDTW70x_18infraware_terminal8executor7installNtB2_16PackageInstaller15install_package
FNDA:0,_RNvMNtNtCsdeW3LDTW70x_18infraware_terminal8executor7installNtB2_16PackageInstaller8register
FNDA:0,_RNvMs0_NtNtCsdeW3LDTW70x_18infraware_terminal8executor7installNtB5_16PackageInstaller22install_package_static
FNDA:0,_RNvXs_NtNtCsdeW3LDTW70x_18infraware_terminal8executor7installNtB4_16PackageInstallerNtNtCs5GmCzIpY9Qj_4core7default7Default7default
FNDA:1,_RNCNvNtNtNtCsdeW3LDTW70x_18infraware_terminal8executor7install5testss_20test_custom_managers0B9_
FNF:29
FNH:22
DA:20,19
DA:21,19
DA:22,19
DA:23,19
DA:24,19
DA:25,19
DA:26,19
DA:27,19
DA:28,19
DA:31,19
DA:32,19
DA:36,2
DA:37,2
DA:38,2
DA:42,0
DA:43,0
DA:44,0
DA:53,0
DA:54,0
DA:55,0
DA:56,0
DA:59,4
DA:60,4
DA:61,4
DA:62,28
DA:63,4
DA:64,4
DA:65,4
DA:66,4
DA:69,9
DA:70,9
DA:71,9
DA:74,4
DA:75,4
DA:76,4
DA:80,2
DA:81,2
DA:82,2
DA:83,14
DA:84,2
DA:85,2
DA:86,2
DA:90,0
DA:91,0
DA:92,0
DA:99,0
DA:100,0
DA:101,0
DA:102,0
DA:105,3
DA:106,3
DA:107,3
DA:111,2
DA:112,2
DA:113,2
DA:121,2
DA:122,2
DA:123,2
DA:124,2
DA:127,2
DA:128,2
DA:130,2
DA:131,2
DA:134,2
DA:135,2
DA:136,2
DA:139,2
DA:140,2
DA:143,2
DA:145,2
DA:146,2
DA:147,2
DA:150,2
DA:152,2
DA:153,2
DA:155,2
DA:156,2
DA:157,2
BRF:0
BRH:0
LF:91
LH:74
end_of_record
SF:/home/crist/infraware-terminal/terminal-app/src/executor/package_manager.rs
FN:54,_RNvXs1_NtNtCskvicDDTzzc8_18infraware_terminal8executor15package_managerNtB5_17AptPackageManagerNtB5_14PackageManager12is_available
FN:50,_RNvXs1_NtNtCskvicDDTzzc8_18infraware_terminal8executor15package_managerNtB5_17AptPackageManagerNtB5_14PackageManager4name
FN:58,_RNvXs1_NtNtCskvicDDTzzc8_18infraware_terminal8executor15package_managerNtB5_17AptPackageManagerNtB5_14PackageManager7install
FN:76,_RNvXs1_NtNtCskvicDDTzzc8_18infraware_terminal8executor15package_managerNtB5_17AptPackageManagerNtB5_14PackageManager8priority
FN:91,_RNvXs5_NtNtCskvicDDTzzc8_18infraware_terminal8executor15package_managerNtB5_17YumPackageManagerNtB5_14PackageManager12is_available
FN:87,_RNvXs5_NtNtCskvicDDTzzc8_18infraware_terminal8executor15package_managerNtB5_17YumPackageManagerNtB5_14PackageManager4name
FN:95,_RNvXs5_NtNtCskvicDDTzzc8_18infraware_terminal8executor15package_managerNtB5_17YumPackageManagerNtB5_14PackageManager7install
FN:113,_RNvXs5_NtNtCskvicDDTzzc8_18infraware_terminal8executor15package_managerNtB5_17YumPackageManagerNtB5_14PackageManager8priority
FN:128,_RNvXs9_NtNtCskvicDDTzzc8_18infraware_terminal8executor15package_managerNtB5_17DnfPackageManagerNtB5_14PackageManager12is_available
FN:124,_RNvXs9_NtNtCskvicDDTzzc8_18infraware_terminal8executor15package_managerNtB5_17DnfPackageManagerNtB5_14PackageManager4name
FN:132,_RNvXs9_NtNtCskvicDDTzzc8_18infraware_terminal8executor15package_managerNtB5_17DnfPackageManagerNtB5_14PackageManager7install
FN:150,_RNvXs9_NtNtCskvicDDTzzc8_18infraware_terminal8executor15package_managerNtB5_17DnfPackageManagerNtB5_14PackageManager8priority
FN:165,_RNvXsd_NtNtCskvicDDTzzc8_18infraware_terminal8executor15package_managerNtB5_20PacmanPackageManagerNtB5_14PackageManager12is_available
FN:161,_RNvXsd_NtNtCskvicDDTzzc8_18infraware_terminal8executor15package_managerNtB5_20PacmanPackageManagerNtB5_14PackageManager4name
FN:169,_RNvXsd_NtNtCskvicDDTzzc8_18infraware_terminal8executor15package_managerNtB5_20PacmanPackageManagerNtB5_14PackageManager7install
FN:191,_RNvXsd_NtNtCskvicDDTzzc8_18infraware_terminal8executor15package_managerNtB5_20PacmanPackageManagerNtB5_14PackageManager8priority
FN:206,_RNvXsh_NtNtCskvicDDTzzc8_18infraware_terminal8executor15package_managerNtB5_18BrewPackageManagerNtB5_14PackageManager12is_available
FN:202,_RNvXsh_NtNtCskvicDDTzzc8_18infraware_terminal8executor15package_managerNtB5_18BrewPackageManagerNtB5_14PackageManager4name
FN:210,_RNvXsh_NtNtCskvicDDTzzc8_18infraware_terminal8executor15package_managerNtB5_18BrewPackageManagerNtB5_14PackageManager7install
FN:226,_RNvXsh_NtNtCskvicDDTzzc8_18infraware_terminal8executor15package_managerNtB5_18BrewPackageManagerNtB5_14PackageManager8priority
FN:241,_RNvXsl_NtNtCskvicDDTzzc8_18infraware_terminal8executor15package_managerNtB5_19ChocoPackageManagerNtB5_14PackageManager12is_available
FN:237,_RNvXsl_NtNtCskvicDDTzzc8_18infraware_terminal8executor15package_managerNtB5_19ChocoPackageManagerNtB5_14PackageManager4name
FN:245,_RNvXsl_NtNtCskvicDDTzzc8_18infraware_terminal8executor15package_managerNtB5_19ChocoPackageManagerNtB5_14PackageManager7install
FN:264,_RNvXsl_NtNtCskvicDDTzzc8_18infraware_terminal8executor15package_managerNtB5_19ChocoPackageManagerNtB5_14PackageManager8priority
FN:279,_RNvXsp_NtNtCskvicDDTzzc8_18infraware_terminal8executor15package_managerNtB5_20WingetPackageManagerNtB5_14PackageManager12is_available
FN:275,_RNvXsp_NtNtCskvicDDTzzc8_18infraware_terminal8executor15package_managerNtB5_20WingetPackageManagerNtB5_14PackageManager4name
FN:283,_RNvXsp_NtNtCskvicDDTzzc8_18infraware_terminal8executor15package_managerNtB5_20WingetPackageManagerNtB5_14PackageManager7install
FN:302,_RNvXsp_NtNtCskvicDDTzzc8_18infraware_terminal8executor15package_managerNtB5_20WingetPackageManagerNtB5_14PackageManager8priority
FN:54,_RNvXs1_NtNtCs9VvCb0vlg4r_18infraware_terminal8executor15package_managerNtB5_17AptPackageManagerNtB5_14PackageManager12is_available
FN:50,_RNvXs1_NtNtCs9VvCb0vlg4r_18infraware_terminal8executor15package_managerNtB5_17AptPackageManagerNtB5_14PackageManager4name
FN:58,_RNvXs1_NtNtCs9VvCb0vlg4r_18infraware_terminal8executor15package_managerNtB5_17AptPackageManagerNtB5_14PackageManager7install
FN:76,_RNvXs1_NtNtCs9VvCb0vlg4r_18infraware_terminal8executor15package_managerNtB5_17AptPackageManagerNtB5_14PackageManager8priority
FN:91,_RNvXs5_NtNtCs9VvCb0vlg4r_18infraware_terminal8executor15package_managerNtB5_17YumPackageManagerNtB5_14PackageManager12is_available
FN:87,_RNvXs5_NtNtCs9VvCb0vlg4r_18infraware_terminal8executor15package_managerNtB5_17YumPackageManagerNtB5_14PackageManager4name
FN:95,_RNvXs5_NtNtCs9VvCb0vlg4r_18infraware_terminal8executor15package_managerNtB5_17YumPackageManagerNtB5_14PackageManager7install
FN:113,_RNvXs5_NtNtCs9VvCb0vlg4r_18infraware_terminal8executor15package_managerNtB5_17YumPackageManagerNtB5_14PackageManager8priority
FN:128,_RNvXs9_NtNtCs9VvCb0vlg4r_18infraware_terminal8executor15package_managerNtB5_17DnfPackageManagerNtB5_14PackageManager12is_available
FN:124,_RNvXs9_NtNtCs9VvCb0vlg4r_18infraware_terminal8executor15package_managerNtB5_17DnfPackageManagerNtB5_14PackageManager4name
FN:132,_RNvXs9_NtNtCs9VvCb0vlg4r_18infraware_terminal8executor15package_managerNtB5_17DnfPackageManagerNtB5_14PackageManager7install
FN:150,_RNvXs9_NtNtCs9VvCb0vlg4r_18infraware_terminal8executor15package_managerNtB5_17DnfPackageManagerNtB5_14PackageManager8priority
FN:165,_RNvXsd_NtNtCs9VvCb0vlg4r_18infraware_terminal8executor15package_managerNtB5_20PacmanPackageManagerNtB5_14PackageManager12is_available
FN:161,_RNvXsd_NtNtCs9VvCb0vlg4r_18infraware_terminal8executor15package_managerNtB5_20PacmanPackageManagerNtB5_14PackageManager4name
FN:169,_RNvXsd_NtNtCs9VvCb0vlg4r_18infraware_terminal8executor15package_managerNtB5_20PacmanPackageManagerNtB5_14PackageManager7install
FN:191,_RNvXsd_NtNtCs9VvCb0vlg4r_18infraware_terminal8executor15package_managerNtB5_20PacmanPackageManagerNtB5_14PackageManager8priority
FN:206,_RNvXsh_NtNtCs9VvCb0vlg4r_18infraware_terminal8executor15package_managerNtB5_18BrewPackageManagerNtB5_14PackageManager12is_available
FN:202,_RNvXsh_NtNtCs9VvCb0vlg4r_18infraware_terminal8executor15package_managerNtB5_18BrewPackageManagerNtB5_14PackageManager4name
FN:210,_RNvXsh_NtNtCs9VvCb0vlg4r_18infraware_terminal8executor15package_managerNtB5_18BrewPackageManagerNtB5_14PackageManager7install
FN:226,_RNvXsh_NtNtCs9VvCb0vlg4r_18infraware_terminal8executor15package_managerNtB5_18BrewPackageManagerNtB5_14PackageManager8priority
FN:241,_RNvXsl_NtNtCs9VvCb0vlg4r_18infraware_terminal8executor15package_managerNtB5_19ChocoPackageManagerNtB5_14PackageManager12is_available
FN:237,_RNvXsl_NtNtCs9VvCb0vlg4r_18infraware_terminal8executor15package_managerNtB5_19ChocoPackageManagerNtB5_14PackageManager4name
FN:245,_RNvXsl_NtNtCs9VvCb0vlg4r_18infraware_terminal8executor15package_managerNtB5_19ChocoPackageManagerNtB5_14PackageManager7install
FN:264,_RNvXsl_NtNtCs9VvCb0vlg4r_18infraware_terminal8executor15package_managerNtB5_19ChocoPackageManagerNtB5_14PackageManager8priority
FN:279,_RNvXsp_NtNtCs9VvCb0vlg4r_18infraware_terminal8executor15package_managerNtB5_20WingetPackageManagerNtB5_14PackageManager12is_available
FN:275,_RNvXsp_NtNtCs9VvCb0vlg4r_18infraware_terminal8executor15package_managerNtB5_20WingetPackageManagerNtB5_14PackageManager4name
FN:283,_RNvXsp_NtNtCs9VvCb0vlg4r_18infraware_terminal8executor15package_managerNtB5_20WingetPackageManagerNtB5_14PackageManager7install
FN:302,_RNvXsp_NtNtCs9VvCb0vlg4r_18infraware_terminal8executor15package_managerNtB5_20WingetPackageManagerNtB5_14PackageManager8priority
FN:332,_RNvNtNtNtCs9VvCb0vlg4r_18infraware_terminal8executor15package_manager5testss_17test_is_available
FN:312,_RNvNtNtNtCs9VvCb0vlg4r_18infraware_terminal8executor15package_manager5testss_26test_package_manager_names
FN:323,_RNvNtNtNtCs9VvCb0vlg4r_18infraware_terminal8executor15package_manager5testss_31test_package_manager_priorities
FN:54,_RNvXs1_NtNtCsdeW3LDTW70x_18infraware_terminal8executor15package_managerNtB5_17AptPackageManagerNtB5_14PackageManager12is_available
FN:50,_RNvXs1_NtNtCsdeW3LDTW70x_18infraware_terminal8executor15package_managerNtB5_17AptPackageManagerNtB5_14PackageManager4name
FN:58,_RNvXs1_NtNtCsdeW3LDTW70x_18infraware_terminal8executor15package_managerNtB5_17AptPackageManagerNtB5_14PackageManager7install
FN:76,_RNvXs1_NtNtCsdeW3LDTW70x_18infraware_terminal8executor15package_managerNtB5_17AptPackageManagerNtB5_14PackageManager8priority
FN:91,_RNvXs5_NtNtCsdeW3LDTW70x_18infraware_terminal8executor15package_managerNtB5_17YumPackageManagerNtB5_14PackageManager12is_available
FN:87,_RNvXs5_NtNtCsdeW3LDTW70x_18infraware_terminal8executor15package_managerNtB5_17YumPackageManagerNtB5_14PackageManager4name
FN:95,_RNvXs5_NtNtCsdeW3LDTW70x_18infraware_terminal8executor15package_managerNtB5_17YumPackageManagerNtB5_14PackageManager7install
FN:113,_RNvXs5_NtNtCsdeW3LDTW70x_18infraware_terminal8executor15package_managerNtB5_17YumPackageManagerNtB5_14PackageManager8priority
FN:128,_RNvXs9_NtNtCsdeW3LDTW70x_18infraware_terminal8executor15package_managerNtB5_17DnfPackageManagerNtB5_14PackageManager12is_available
FN:124,_RNvXs9_NtNtCsdeW3LDTW70x_18infraware_terminal8executor15package_managerNtB5_17DnfPackageManagerNtB5_14PackageManager4name
FN:132,_RNvXs9_NtNtCsdeW3LDTW70x_18infraware_terminal8executor15package_managerNtB5_17DnfPackageManagerNtB5_14PackageManager7install
FN:150,_RNvXs9_NtNtCsdeW3LDTW70x_18infraware_terminal8executor15package_managerNtB5_17DnfPackageManagerNtB5_14PackageManager8priority
FN:165,_RNvXsd_NtNtCsdeW3LDTW70x_18infraware_terminal8executor15package_managerNtB5_20PacmanPackageManagerNtB5_14PackageManager12is_available
FN:161,_RNvXsd_NtNtCsdeW3LDTW70x_18infraware_terminal8executor15package_managerNtB5_20PacmanPackageManagerNtB5_14PackageManager4name
FN:169,_RNvXsd_NtNtCsdeW3LDTW70x_18infraware_terminal8executor15package_managerNtB5_20PacmanPackageManagerNtB5_14PackageManager7install
FN:191,_RNvXsd_NtNtCsdeW3LDTW70x_18infraware_terminal8executor15package_managerNtB5_20PacmanPackageManagerNtB5_14PackageManager8priority
FN:206,_RNvXsh_NtNtCsdeW3LDTW70x_18infraware_terminal8executor15package_managerNtB5_18BrewPackageManagerNtB5_14PackageManager12is_available
FN:202,_RNvXsh_NtNtCsdeW3LDTW70x_18infraware_terminal8executor15package_managerNtB5_18BrewPackageManagerNtB5_14PackageManager4name
FN:210,_RNvXsh_NtNtCsdeW3LDTW70x_18infraware_terminal8executor15package_managerNtB5_18BrewPackageManagerNtB5_14PackageManager7install
FN:226,_RNvXsh_NtNtCsdeW3LDTW70x_18infraware_terminal8executor15package_managerNtB5_18BrewPackageManagerNtB5_14PackageManager8priority
FN:241,_RNvXsl_NtNtCsdeW3LDTW70x_18infraware_terminal8executor15package_managerNtB5_19ChocoPackageManagerNtB5_14PackageManager12is_available
FN:237,_RNvXsl_NtNtCsdeW3LDTW70x_18infraware_terminal8executor15package_managerNtB5_19ChocoPackageManagerNtB5_14PackageManager4name
FN:245,_RNvXsl_NtNtCsdeW3LDTW70x_18infraware_terminal8executor15package_managerNtB5_19ChocoPackageManagerNtB5_14PackageManager7install
FN:264,_RNvXsl_NtNtCsdeW3LDTW70x_18infraware_terminal8executor15package_managerNtB5_19ChocoPackageManagerNtB5_14PackageManager8priority
FN:279,_RNvXsp_NtNtCsdeW3LDTW70x_18infraware_terminal8executor15package_managerNtB5_20WingetPackageManagerNtB5_14PackageManager12is_available
FN:275,_RNvXsp_NtNtCsdeW3LDTW70x_18infraware_terminal8executor15package_managerNtB5_20WingetPackageManagerNtB5_14PackageManager4name
FN:283,_RNvXsp_NtNtCsdeW3LDTW70x_18infraware_terminal8executor15package_managerNtB5_20WingetPackageManagerNtB5_14PackageManager7install
FN:302,_RNvXsp_NtNtCsdeW3LDTW70x_18infraware_terminal8executor15package_managerNtB5_20WingetPackageManagerNtB5_14PackageManager8priority
FN:332,_RNvNtNtNtCsdeW3LDTW70x_18infraware_terminal8executor15package_manager5testss_17test_is_available
FN:312,_RNvNtNtNtCsdeW3LDTW70x_18infraware_terminal8executor15package_manager5testss_26test_package_manager_names
FN:323,_RNvNtNtNtCsdeW3LDTW70x_18infraware_terminal8executor15package_manager5testss_31test_package_manager_priorities
FNDA:0,_RNvXs1_NtNtCskvicDDTzzc8_18infraware_terminal8executor15package_managerNtB5_17AptPackageManagerNtB5_14PackageManager12is_available
FNDA:0,_RNvXs1_NtNtCskvicDDTzzc8_18infraware_terminal8executor15package_managerNtB5_17AptPackageManagerNtB5_14PackageManager4name
FNDA:0,_RNvXs1_NtNtCskvicDDTzzc8_18infraware_terminal8executor15package_managerNtB5_17AptPackageManagerNtB5_14PackageManager7install
FNDA:0,_RNvXs1_NtNtCskvicDDTzzc8_18infraware_terminal8executor15package_managerNtB5_17AptPackageManagerNtB5_14PackageManager8priority
FNDA:0,_RNvXs5_NtNtCskvicDDTzzc8_18infraware_terminal8executor15package_managerNtB5_17YumPackageManagerNtB5_14PackageManager12is_available
FNDA:0,_RNvXs5_NtNtCskvicDDTzzc8_18infraware_terminal8executor15package_managerNtB5_17YumPackageManagerNtB5_14PackageManager4name
FNDA:0,_RNvXs5_NtNtCskvicDDTzzc8_18infraware_terminal8executor15package_managerNtB5_17YumPackageManagerNtB5_14PackageManager7install
FNDA:0,_RNvXs5_NtNtCskvicDDTzzc8_18infraware_terminal8executor15package_managerNtB5_17YumPackageManagerNtB5_14PackageManager8priority
FNDA:0,_RNvXs9_NtNtCskvicDDTzzc8_18infraware_terminal8executor15package_managerNtB5_17DnfPackageManagerNtB5_14PackageManager12is_available
FNDA:0,_RNvXs9_NtNtCskvicDDTzzc8_18infraware_terminal8executor15package_managerNtB5_17DnfPackageManagerNtB5_14PackageManager4name
FNDA:0,_RNvXs9_NtNtCskvicDDTzzc8_18infraware_terminal8executor15package_managerNtB5_17DnfPackageManagerNtB5_14PackageManager7install
FNDA:0,_RNvXs9_NtNtCskvicDDTzzc8_18infraware_terminal8executor15package_managerNtB5_17DnfPackageManagerNtB5_14PackageManager8priority
FNDA:0,_RNvXsd_NtNtCskvicDDTzzc8_18infraware_terminal8executor15package_managerNtB5_20PacmanPackageManagerNtB5_14PackageManager12is_available
FNDA:0,_RNvXsd_NtNtCskvicDDTzzc8_18infraware_terminal8executor15package_managerNtB5_20PacmanPackageManagerNtB5_14PackageManager4name
FNDA:0,_RNvXsd_NtNtCskvicDDTzzc8_18infraware_terminal8executor15package_managerNtB5_20PacmanPackageManagerNtB5_14PackageManager7install
FNDA:0,_RNvXsd_NtNtCskvicDDTzzc8_18infraware_terminal8executor15package_managerNtB5_20PacmanPackageManagerNtB5_14PackageManager8priority
FNDA:0,_RNvXsh_NtNtCskvicDDTzzc8_18infraware_terminal8executor15package_managerNtB5_18BrewPackageManagerNtB5_14PackageManager12is_available
FNDA:0,_RNvXsh_NtNtCskvicDDTzzc8_18infraware_terminal8executor15package_managerNtB5_18BrewPackageManagerNtB5_14PackageManager4name
FNDA:0,_RNvXsh_NtNtCskvicDDTzzc8_18infraware_terminal8executor15package_managerNtB5_18BrewPackageManagerNtB5_14PackageManager7install
FNDA:0,_RNvXsh_NtNtCskvicDDTzzc8_18infraware_terminal8executor15package_managerNtB5_18BrewPackageManagerNtB5_14PackageManager8priority
FNDA:0,_RNvXsl_NtNtCskvicDDTzzc8_18infraware_terminal8executor15package_managerNtB5_19ChocoPackageManagerNtB5_14PackageManager12is_available
FNDA:0,_RNvXsl_NtNtCskvicDDTzzc8_18infraware_terminal8executor15package_managerNtB5_19ChocoPackageManagerNtB5_14PackageManager4name
FNDA:0,_RNvXsl_NtNtCskvicDDTzzc8_18infraware_terminal8executor15package_managerNtB5_19ChocoPackageManagerNtB5_14PackageManager7install
FNDA:0,_RNvXsl_NtNtCskvicDDTzzc8_18infraware_terminal8executor15package_managerNtB5_19ChocoPackageManagerNtB5_14PackageManager8priority
FNDA:0,_RNvXsp_NtNtCskvicDDTzzc8_18infraware_terminal8executor15package_managerNtB5_20WingetPackageManagerNtB5_14PackageManager12is_available
FNDA:0,_RNvXsp_NtNtCskvicDDTzzc8_18infraware_terminal8executor15package_managerNtB5_20WingetPackageManagerNtB5_14PackageManager4name
FNDA:0,_RNvXsp_NtNtCskvicDDTzzc8_18infraware_terminal8executor15package_managerNtB5_20WingetPackageManagerNtB5_14PackageManager7install
FNDA:0,_RNvXsp_NtNtCskvicDDTzzc8_18infraware_terminal8executor15package_managerNtB5_20WingetPackageManagerNtB5_14PackageManager8priority
FNDA:9,_RNvXs1_NtNtCs9VvCb0vlg4r_18infraware_terminal8executor15package_managerNtB5_17AptPackageManagerNtB5_14PackageManager12is_available
FNDA:4,_RNvXs1_NtNtCs9VvCb0vlg4r_18infraware_terminal8executor15package_managerNtB5_17AptPackageManagerNtB5_14PackageManager4name
FNDA:0,_RNvXs1_NtNtCs9VvCb0vlg4r_18infraware_terminal8executor15package_managerNtB5_17AptPackageManagerNtB5_14PackageManager7install
FNDA:2,_RNvXs1_NtNtCs9VvCb0vlg4r_18infraware_terminal8executor15package_managerNtB5_17AptPackageManagerNtB5_14PackageManager8priority
FNDA:4,_RNvXs5_NtNtCs9VvCb0vlg4r_18infraware_terminal8executor15package_managerNtB5_17YumPackageManagerNtB5_14PackageManager12is_available
FNDA:1,_RNvXs5_NtNtCs9VvCb0vlg4r_18infraware_terminal8executor15package_managerNtB5_17YumPackageManagerNtB5_14PackageManager4name
FNDA:0,_RNvXs5_NtNtCs9VvCb0vlg4r_18infraware_terminal8executor15package_managerNtB5_17YumPackageManagerNtB5_14PackageManager7install
FNDA:1,_RNvXs5_NtNtCs9VvCb0vlg4r_18infraware_terminal8executor15package_managerNtB5_17YumPackageManagerNtB5_14PackageManager8priority
FNDA:4,_RNvXs9_NtNtCs9VvCb0vlg4r_18infraware_terminal8executor15package_managerNtB5_17DnfPackageManagerNtB5_14PackageManager12is_available
FNDA:1,_RNvXs9_NtNtCs9VvCb0vlg4r_18infraware_terminal8executor15package_managerNtB5_17DnfPackageManagerNtB5_14PackageManager4name
FNDA:0,_RNvXs9_NtNtCs9VvCb0vlg4r_18infraware_terminal8executor15package_managerNtB5_17DnfPackageManagerNtB5_14PackageManager7install
FNDA:1,_RNvXs9_NtNtCs9VvCb0vlg4r_18infraware_terminal8executor15package_managerNtB5_17DnfPackageManagerNtB5_14PackageManager8priority
FNDA:4,_RNvXsd_NtNtCs9VvCb0vlg4r_18infraware_terminal8executor15package_managerNtB5_20PacmanPackageManagerNtB5_14PackageManager12is_available
FNDA:1,_RNvXsd_NtNtCs9VvCb0vlg4r_18infraware_terminal8executor15package_managerNtB5_20PacmanPackageManagerNtB5_14PackageManager4name
FNDA:0,_RNvXsd_NtNtCs9VvCb0vlg4r_18infraware_terminal8executor15package_managerNtB5_20PacmanPackageManagerNtB5_14PackageManager7install
FNDA:0,_RNvXsd_NtNtCs9VvCb0vlg4r_18infraware_terminal8executor15package_managerNtB5_20PacmanPackageManagerNtB5_14PackageManager8priority
FNDA:4,_RNvXsh_NtNtCs9VvCb0vlg4r_18infraware_terminal8executor15package_managerNtB5_18BrewPackageManagerNtB5_14PackageManager12is_available
FNDA:1,_RNvXsh_NtNtCs9VvCb0vlg4r_18infraware_terminal8executor15package_managerNtB5_18BrewPackageManagerNtB5_14PackageManager4name
FNDA:0,_RNvXsh_NtNtCs9VvCb0vlg4r_18infraware_terminal8executor15package_managerNtB5_18BrewPackageManagerNtB5_14PackageManager7install
FNDA:0,_RNvXsh_NtNtCs9VvCb0vlg4r_18infraware_terminal8executor15package_managerNtB5_18BrewPackageManagerNtB5_14PackageManager8priority
FNDA:4,_RNvXsl_NtNtCs9VvCb0vlg4r_18infraware_terminal8executor15package_managerNtB5_19ChocoPackageManagerNtB5_14PackageManager12is_available
FNDA:1,_RNvXsl_NtNtCs9VvCb0vlg4r_18infraware_terminal8executor15package_managerNtB5_19ChocoPackageManagerNtB5_14PackageManager4name
FNDA:0,_RNvXsl_NtNtCs9VvCb0vlg4r_18infraware_terminal8executor15package_managerNtB5_19ChocoPackageManagerNtB5_14PackageManager7install
FNDA:1,_RNvXsl_NtNtCs9VvCb0vlg4r_18infraware_terminal8executor15package_managerNtB5_19ChocoPackageManagerNtB5_14PackageManager8priority
FNDA:4,_RNvXsp_NtNtCs9VvCb0vlg4r_18infraware_terminal8executor15package_managerNtB5_20WingetPackageManagerNtB5_14PackageManager12is_available
FNDA:1,_RNvXsp_NtNtCs9VvCb0vlg4r_18infraware_terminal8executor15package_managerNtB5_20WingetPackageManagerNtB5_14PackageManager4name
FNDA:0,_RNvXsp_NtNtCs9VvCb0vlg4r_18infraware_terminal8executor15package_managerNtB5_20WingetPackageManagerNtB5_14PackageManager7install
FNDA:1,_RNvXsp_NtNtCs9VvCb0vlg4r_18infraware_terminal8executor15package_managerNtB5_20WingetPackageManagerNtB5_14PackageManager8priority
FNDA:1,_RNvNtNtNtCs9VvCb0vlg4r_18infraware_terminal8executor15package_manager5testss_17test_is_available
FNDA:1,_RNvNtNtNtCs9VvCb0vlg4r_18infraware_terminal8executor15package_manager5testss_26test_package_manager_names
FNDA:1,_RNvNtNtNtCs9VvCb0vlg4r_18infraware_terminal8executor15package_manager5testss_31test_package_manager_priorities
FNDA:8,_RNvXs1_NtNtCsdeW3LDTW70x_18infraware_terminal8executor15package_managerNtB5_17AptPackageManagerNtB5_14PackageManager12is_available
FNDA:4,_RNvXs1_NtNtCsdeW3LDTW70x_18infraware_terminal8executor15package_managerNtB5_17AptPackageManagerNtB5_14PackageManager4name
FNDA:0,_RNvXs1_NtNtCsdeW3LDTW70x_18infraware_terminal8executor15package_managerNtB5_17AptPackageManagerNtB5_14PackageManager7install
FNDA:2,_RNvXs1_NtNtCsdeW3LDTW70x_18infraware_terminal8executor15package_managerNtB5_17AptPackageManagerNtB5_14PackageManager8priority
FNDA:4,_RNvXs5_NtNtCsdeW3LDTW70x_18infraware_terminal8executor15package_managerNtB5_17YumPackageManagerNtB5_14PackageManager12is_available
FNDA:1,_RNvXs5_NtNtCsdeW3LDTW70x_18infraware_terminal8executor15package_managerNtB5_17YumPackageManagerNtB5_14PackageManager4name
FNDA:0,_RNvXs5_NtNtCsdeW3LDTW70x_18infraware_terminal8executor15package_managerNtB5_17YumPackageManagerNtB5_14PackageManager7install
FNDA:1,_RNvXs5_NtNtCsdeW3LDTW70x_18infraware_terminal8executor15package_managerNtB5_17YumPackageManagerNtB5_14PackageManager8priority
FNDA:4,_RNvXs9_NtNtCsdeW3LDTW70x_18infraware_terminal8executor15package_managerNtB5_17DnfPackageManagerNtB5_14PackageManager12is_available
FNDA:1,_RNvXs9_NtNtCsdeW3LDTW70x_18infraware_terminal8executor15package_managerNtB5_17DnfPackageManagerNtB5_14PackageManager4name
FNDA:0,_RNvXs9_NtNtCsdeW3LDTW70x_18infraware_terminal8executor15package_managerNtB5_17DnfPackageManagerNtB5_14PackageManager7install
FNDA:1,_RNvXs9_NtNtCsdeW3LDTW70x_18infraware_terminal8executor15package_managerNtB5_17DnfPackageManagerNtB5_14PackageManager8priority
FNDA:4,_RNvXsd_NtNtCsdeW3LDTW70x_18infraware_terminal8executor15package_managerNtB5_20PacmanPackageManagerNtB5_14PackageManager12is_available
FNDA:1,_RNvXsd_NtNtCsdeW3LDTW70x_18infraware_terminal8executor15package_managerNtB5_20PacmanPackageManagerNtB5_14PackageManager4name
FNDA:0,_RNvXsd_NtNtCsdeW3LDTW70x_18infraware_terminal8executor15package_managerNtB5_20PacmanPackageManagerNtB5_14PackageManager7install
FNDA:0,_RNvXsd_NtNtCsdeW3LDTW70x_18infraware_terminal8executor15package_managerNtB5_20PacmanPackageManagerNtB5_14PackageManager8priority
FNDA:4,_RNvXsh_NtNtCsdeW3LDTW70x_18infraware_terminal8executor15package_managerNtB5_18BrewPackageManagerNtB5_14PackageManager12is_available
FNDA:1,_RNvXsh_NtNtCsdeW3LDTW70x_18infraware_terminal8executor15package_managerNtB5_18BrewPackageManagerNtB5_14PackageManager4name
FNDA:0,_RNvXsh_NtNtCsdeW3LDTW70x_18infraware_terminal8executor15package_managerNtB5_18BrewPackageManagerNtB5_14PackageManager7install
FNDA:0,_RNvXsh_NtNtCsdeW3LDTW70x_18infraware_terminal8executor15package_managerNtB5_18BrewPackageManagerNtB5_14PackageManager8priority
FNDA:4,_RNvXsl_NtNtCsdeW3LDTW70x_18infraware_terminal8executor15package_managerNtB5_19ChocoPackageManagerNtB5_14PackageManager12is_available
FNDA:1,_RNvXsl_NtNtCsdeW3LDTW70x_18infraware_terminal8executor15package_managerNtB5_19ChocoPackageManagerNtB5_14PackageManager4name
FNDA:0,_RNvXsl_NtNtCsdeW3LDTW70x_18infraware_terminal8executor15package_managerNtB5_19ChocoPackageManagerNtB5_14PackageManager7install
FNDA:1,_RNvXsl_NtNtCsdeW3LDTW70x_18infraware_terminal8executor15package_managerNtB5_19ChocoPackageManagerNtB5_14PackageManager8priority
FNDA:4,_RNvXsp_NtNtCsdeW3LDTW70x_18infraware_terminal8executor15package_managerNtB5_20WingetPackageManagerNtB5_14PackageManager12is_available
FNDA:1,_RNvXsp_NtNtCsdeW3LDTW70x_18infraware_terminal8executor15package_managerNtB5_20WingetPackageManagerNtB5_14PackageManager4name
FNDA:0,_RNvXsp_NtNtCsdeW3LDTW70x_18infraware_terminal8executor15package_managerNtB5_20WingetPackageManagerNtB5_14PackageManager7install
FNDA:1,_RNvXsp_NtNtCsdeW3LDTW70x_18infraware_terminal8executor15package_managerNtB5_20WingetPackageManagerNtB5_14PackageManager8priority
FNDA:1,_RNvNtNtNtCsdeW3LDTW70x_18infraware_terminal8executor15package_manager5testss_17test_is_available
FNDA:1,_RNvNtNtNtCsdeW3LDTW70x_18infraware_terminal8executor15package_manager5testss_26test_package_manager_names
FNDA:1,_RNvNtNtNtCsdeW3LDTW70x_18infraware_terminal8executor15package_manager5testss_31test_package_manager_priorities
FNF:31
FNH:22
DA:50,8
DA:51,8
DA:52,8
DA:54,17
DA:55,17
DA:56,17
DA:58,0
DA:74,0
DA:76,4
DA:77,4
DA:78,4
DA:87,2
DA:88,2
DA:89,2
DA:91,8
DA:92,8
DA:93,8
DA:95,0
DA:111,0
DA:113,2
DA:114,2
DA:115,2
DA:124,2
DA:125,2
DA:126,2
DA:128,8
DA:129,8
DA:130,8
DA:132,0
DA:148,0
DA:150,2
DA:151,2
DA:152,2
DA:161,2
DA:162,2
DA:163,2
DA:165,8
DA:166,8
DA:167,8
DA:169,0
DA:189,0
DA:191,0
DA:192,0
DA:193,0
DA:202,2
DA:203,2
DA:204,2
DA:206,8
DA:207,8
DA:208,8
DA:210,0
DA:224,0
DA:226,0
DA:227,0
DA:228,0
DA:237,2
DA:238,2
DA:239,2
DA:241,8
DA:242,8
DA:243,8
DA:245,0
DA:262,0
DA:264,2
DA:265,2
DA:266,2
DA:275,2
DA:276,2
DA:277,2
DA:279,8
DA:280,8
DA:281,8
DA:283,0
DA:300,0
DA:302,2
DA:303,2
DA:304,2
DA:312,2
DA:313,2
DA:314,2
DA:315,2
DA:316,2
DA:317,2
DA:318,2
DA:319,2
DA:320,2
DA:323,2
DA:325,2
DA:328,2
DA:329,2
DA:332,2
DA:334,2
DA:335,2
DA:336,2
DA:337,2
DA:338,2
DA:339,2
DA:340,2
DA:341,2
DA:344,16
DA:345,14
DA:346,14
DA:347,2
BRF:0
BRH:0
LF:103
LH:83
end_of_record
SF:/home/crist/infraware-terminal/terminal-app/src/input/classifier.rs
FN:102,_RNvMs_NtNtCsgbM7bOyfJDi_18infraware_terminal5input10classifierNtB4_15InputClassifier10with_chain
FN:169,_RNvMs_NtNtCsgbM7bOyfJDi_18infraware_terminal5input10classifierNtB4_15InputClassifier17add_known_command
FN:148,_RNvMs_NtNtCsgbM7bOyfJDi_18infraware_terminal5input10classifierNtB4_15InputClassifier17classify_internal
FN:78,_RNvMs_NtNtCsgbM7bOyfJDi_18infraware_terminal5input10classifierNtB4_15InputClassifier3new
FN:113,_RNvMs_NtNtCsgbM7bOyfJDi_18infraware_terminal5input10classifierNtB4_15InputClassifier8classify
FN:59,_RNvXNtNtCsgbM7bOyfJDi_18infraware_terminal5input10classifierNtB2_15InputClassifierNtNtCs5GmCzIpY9Qj_4core3fmt5Debug3fmt
FN:177,_RNvXs0_NtNtCsgbM7bOyfJDi_18infraware_terminal5input10classifierNtB5_15InputClassifierNtNtCs5GmCzIpY9Qj_4core7default7Default7default
FN:102,_RNvMs_NtNtCskvicDDTzzc8_18infraware_terminal5input10classifierNtB4_15InputClassifier10with_chain
FN:169,_RNvMs_NtNtCskvicDDTzzc8_18infraware_terminal5input10classifierNtB4_15InputClassifier17add_known_command
FN:59,_RNvXNtNtCskvicDDTzzc8_18infraware_terminal5input10classifierNtB2_15InputClassifierNtNtCs5GmCzIpY9Qj_4core3fmt5Debug3fmt
FN:148,_RNvMs_NtNtCskvicDDTzzc8_18infraware_terminal5input10classifierNtB4_15InputClassifier17classify_internal
FN:78,_RNvMs_NtNtCskvicDDTzzc8_18infraware_terminal5input10classifierNtB4_15InputClassifier3new
FN:113,_RNvMs_NtNtCskvicDDTzzc8_18infraware_terminal5input10classifierNtB4_15InputClassifier8classify
FN:177,_RNvXs0_NtNtCskvicDDTzzc8_18infraware_terminal5input10classifierNtB5_15InputClassifierNtNtCs5GmCzIpY9Qj_4core7default7Default7default
FN:102,_RNvMs_NtNtCs9VvCb0vlg4r_18infraware_terminal5input10classifierNtB4_15InputClassifier10with_chain
FN:169,_RNvMs_NtNtCs9VvCb0vlg4r_18infraware_terminal5input10classifierNtB4_15InputClassifier17add_known_command
FN:59,_RNvXNtNtCs9VvCb0vlg4r_18infraware_terminal5input10classifierNtB2_15InputClassifierNtNtCs5GmCzIpY9Qj_4core3fmt5Debug3fmt
FN:177,_RNvXs0_NtNtCs9VvCb0vlg4r_18infraware_terminal5input10classifierNtB5_15InputClassifierNtNtCs5GmCzIpY9Qj_4core7default7Default7default
FN:148,_RNvMs_NtNtCs9VvCb0vlg4r_18infraware_terminal5input10classifierNtB4_15InputClassifier17classify_internal
FN:78,_RNvMs_NtNtCs9VvCb0vlg4r_18infraware_terminal5input10classifierNtB4_15InputClassifier3new
FN:113,_RNvMs_NtNtCs9VvCb0vlg4r_18infraware_terminal5input10classifierNtB4_15InputClassifier8classify
FN:283,_RNvNtNtNtCs9VvCb0vlg4r_18infraware_terminal5input10classifier5testss_15test_edge_cases
FN:231,_RNvNtNtNtCs9VvCb0vlg4r_18infraware_terminal5input10classifier5testss_19test_command_syntax
FN:187,_RNvNtNtNtCs9VvCb0vlg4r_18infraware_terminal5input10classifier5testss_19test_known_commands
FN:204,_RNvNtNtNtCs9VvCb0vlg4r_18infraware_terminal5input10classifier5testss_21test_natural_language
FN:248,_RNvNtNtNtCs9VvCb0vlg4r_18infraware_terminal5input10classifier5testss_23test_universal_patterns
FN:148,_RNvMs_NtNtCsdeW3LDTW70x_18infraware_terminal5input10classifierNtB4_15InputClassifier17classify_internal
FN:78,_RNvMs_NtNtCsdeW3LDTW70x_18infraware_terminal5input10classifierNtB4_15InputClassifier3new
FN:113,_RNvMs_NtNtCsdeW3LDTW70x_18infraware_terminal5input10classifierNtB4_15InputClassifier8classify
FN:283,_RNvNtNtNtCsdeW3LDTW70x_18infraware_terminal5input10classifier5testss_15test_edge_cases
FN:231,_RNvNtNtNtCsdeW3LDTW70x_18infraware_terminal5input10classifier5testss_19test_command_syntax
FN:187,_RNvNtNtNtCsdeW3LDTW70x_18infraware_terminal5input10classifier5testss_19test_known_commands
FN:204,_RNvNtNtNtCsdeW3LDTW70x_18infraware_terminal5input10classifier5testss_21test_natural_language
FN:248,_RNvNtNtNtCsdeW3LDTW70x_18infraware_terminal5input10classifier5testss_23test_universal_patterns
FN:102,_RNvMs_NtNtCsdeW3LDTW70x_18infraware_terminal5input10classifierNtB4_15InputClassifier10with_chain
FN:169,_RNvMs_NtNtCsdeW3LDTW70x_18infraware_terminal5input10classifierNtB4_15InputClassifier17add_known_command
FN:59,_RNvXNtNtCsdeW3LDTW70x_18infraware_terminal5input10classifierNtB2_15InputClassifierNtNtCs5GmCzIpY9Qj_4core3fmt5Debug3fmt
FN:177,_RNvXs0_NtNtCsdeW3LDTW70x_18infraware_terminal5input10classifierNtB5_15InputClassifierNtNtCs5GmCzIpY9Qj_4core7default7Default7default
FNDA:0,_RNvMs_NtNtCsgbM7bOyfJDi_18infraware_terminal5input10classifierNtB4_15InputClassifier10with_chain
FNDA:0,_RNvMs_NtNtCsgbM7bOyfJDi_18infraware_terminal5input10classifierNtB4_15InputClassifier17add_known_command
FNDA:44,_RNvMs_NtNtCsgbM7bOyfJDi_18infraware_terminal5input10classifierNtB4_15InputClassifier17classify_internal
FNDA:20,_RNvMs_NtNtCsgbM7bOyfJDi_18infraware_terminal5input10classifierNtB4_15InputClassifier3new
FNDA:44,_RNvMs_NtNtCsgbM7bOyfJDi_18infraware_terminal5input10classifierNtB4_15InputClassifier8classify
FNDA:0,_RNvXNtNtCsgbM7bOyfJDi_18infraware_terminal5input10classifierNtB2_15InputClassifierNtNtCs5GmCzIpY9Qj_4core3fmt5Debug3fmt
FNDA:0,_RNvXs0_NtNtCsgbM7bOyfJDi_18infraware_terminal5input10classifierNtB5_15InputClassifierNtNtCs5GmCzIpY9Qj_4core7default7Default7default
FNDA:0,_RNvMs_NtNtCskvicDDTzzc8_18infraware_terminal5input10classifierNtB4_15InputClassifier10with_chain
FNDA:0,_RNvMs_NtNtCskvicDDTzzc8_18infraware_terminal5input10classifierNtB4_15InputClassifier17add_known_command
FNDA:0,_RNvXNtNtCskvicDDTzzc8_18infraware_terminal5input10classifierNtB2_15InputClassifierNtNtCs5GmCzIpY9Qj_4core3fmt5Debug3fmt
FNDA:0,_RNvMs_NtNtCskvicDDTzzc8_18infraware_terminal5input10classifierNtB4_15InputClassifier17classify_internal
FNDA:0,_RNvMs_NtNtCskvicDDTzzc8_18infraware_terminal5input10classifierNtB4_15InputClassifier3new
FNDA:0,_RNvMs_NtNtCskvicDDTzzc8_18infraware_terminal5input10classifierNtB4_15InputClassifier8classify
FNDA:0,_RNvXs0_NtNtCskvicDDTzzc8_18infraware_terminal5input10classifierNtB5_15InputClassifierNtNtCs5GmCzIpY9Qj_4core7default7Default7default
FNDA:0,_RNvMs_NtNtCs9VvCb0vlg4r_18infraware_terminal5input10classifierNtB4_15InputClassifier10with_chain
FNDA:0,_RNvMs_NtNtCs9VvCb0vlg4r_18infraware_terminal5input10classifierNtB4_15InputClassifier17add_known_command
FNDA:0,_RNvXNtNtCs9VvCb0vlg4r_18infraware_terminal5input10classifierNtB2_15InputClassifierNtNtCs5GmCzIpY9Qj_4core3fmt5Debug3fmt
FNDA:0,_RNvXs0_NtNtCs9VvCb0vlg4r_18infraware_terminal5input10classifierNtB5_15InputClassifierNtNtCs5GmCzIpY9Qj_4core7default7Default7default
FNDA:17,_RNvMs_NtNtCs9VvCb0vlg4r_18infraware_terminal5input10classifierNtB4_15InputClassifier17classify_internal
FNDA:5,_RNvMs_NtNtCs9VvCb0vlg4r_18infraware_terminal5input10classifierNtB4_15InputClassifier3new
FNDA:17,_RNvMs_NtNtCs9VvCb0vlg4r_18infraware_terminal5input10classifierNtB4_15InputClassifier8classify
FNDA:1,_RNvNtNtNtCs9VvCb0vlg4r_18infraware_terminal5input10classifier5testss_15test_edge_cases
FNDA:1,_RNvNtNtNtCs9VvCb0vlg4r_18infraware_terminal5input10classifier5testss_19test_command_syntax
FNDA:1,_RNvNtNtNtCs9VvCb0vlg4r_18infraware_terminal5input10classifier5testss_19test_known_commands
FNDA:1,_RNvNtNtNtCs9VvCb0vlg4r_18infraware_terminal5input10classifier5testss_21test_natural_language
FNDA:1,_RNvNtNtNtCs9VvCb0vlg4r_18infraware_terminal5input10classifier5testss_23test_universal_patterns
FNDA:17,_RNvMs_NtNtCsdeW3LDTW70x_18infraware_terminal5input10classifierNtB4_15InputClassifier17classify_internal
FNDA:5,_RNvMs_NtNtCsdeW3LDTW70x_18infraware_terminal5input10classifierNtB4_15InputClassifier3new
FNDA:17,_RNvMs_NtNtCsdeW3LDTW70x_18infraware_terminal5input10classifierNtB4_15InputClassifier8classify
FNDA:1,_RNvNtNtNtCsdeW3LDTW70x_18infraware_terminal5input10classifier5testss_15test_edge_cases
FNDA:1,_RNvNtNtNtCsdeW3LDTW70x_18infraware_terminal5input10classifier5testss_19test_command_syntax
FNDA:1,_RNvNtNtNtCsdeW3LDTW70x_18infraware_terminal5input10classifier5testss_19test_known_commands
FNDA:1,_RNvNtNtNtCsdeW3LDTW70x_18infraware_terminal5input10classifier5testss_21test_natural_language
FNDA:1,_RNvNtNtNtCsdeW3LDTW70x_18infraware_terminal5input10classifier5testss_23test_universal_patterns
FNDA:0,_RNvMs_NtNtCsdeW3LDTW70x_18infraware_terminal5input10classifierNtB4_15InputClassifier10with_chain
FNDA:0,_RNvMs_NtNtCsdeW3LDTW70x_18infraware_terminal5input10classifierNtB4_15InputClassifier17add_known_command
FNDA:0,_RNvXNtNtCsdeW3LDTW70x_18infraware_terminal5input10classifierNtB2_15InputClassifierNtNtCs5GmCzIpY9Qj_4core3fmt5Debug3fmt
FNDA:0,_RNvXs0_NtNtCsdeW3LDTW70x_18infraware_terminal5input10classifierNtB5_15InputClassifierNtNtCs5GmCzIpY9Qj_4core7default7Default7default
FNF:12
FNH:8
DA:59,0
DA:60,0
DA:61,0
DA:62,0
DA:63,0
DA:78,30
DA:79,30
DA:81,30
DA:83,30
DA:85,30
DA:87,30
DA:89,30
DA:91,30
DA:93,30
DA:95,30
DA:97,30
DA:98,30
DA:102,0
DA:103,0
DA:104,0
DA:113,78
DA:116,78
DA:119,78
DA:121,76
DA:124,0
DA:125,0
DA:126,0
DA:128,0
DA:132,0
DA:133,0
DA:135,0
DA:139,0
DA:140,76
DA:141,2
DA:144,78
DA:145,78
DA:148,78
DA:150,78
DA:151,78
DA:155,0
DA:158,78
DA:169,0
DA:173,0
DA:177,0
DA:178,0
DA:179,0
DA:187,2
DA:188,2
DA:191,2
DA:193,2
DA:197,2
DA:198,2
DA:201,2
DA:204,2
DA:205,2
DA:208,2
DA:209,2
DA:214,2
DA:215,2
DA:216,2
DA:217,0
DA:224,2
DA:225,2
DA:228,2
DA:231,2
DA:232,2
DA:235,2
DA:236,2
DA:241,2
DA:242,2
DA:245,2
DA:248,2
DA:249,2
DA:252,2
DA:253,2
DA:256,2
DA:257,2
DA:262,2
DA:263,2
DA:264,2
DA:265,2
DA:268,2
DA:269,2
DA:270,2
DA:271,2
DA:276,2
DA:277,2
DA:280,2
DA:283,2
DA:284,2
DA:289,2
DA:290,2
DA:291,2
DA:292,0
DA:296,2
DA:297,2
DA:300,2
DA:301,2
DA:306,2
DA:307,2
DA:311,2
DA:312,2
DA:315,2
BRF:0
BRH:0
LF:103
LH:79
end_of_record
SF:/home/crist/infraware-terminal/terminal-app/src/input/discovery.rs
FN:430,_RNCNCNvNtNtCsgbM7bOyfJDi_18infraware_terminal5input9discovery13parse_aliasess_00B9_
FN:231,_RNCNvMNtNtCsgbM7bOyfJDi_18infraware_terminal5input9discoveryNtB4_12CommandCache19load_system_aliases0B8_
FN:17,_RNCNvNtNtCsgbM7bOyfJDi_18infraware_terminal5input9discovery13COMMAND_CACHE0B7_
FN:429,_RNCNvNtNtCsgbM7bOyfJDi_18infraware_terminal5input9discovery13parse_aliases0B7_
FN:430,_RNCNvNtNtCsgbM7bOyfJDi_18infraware_terminal5input9discovery13parse_aliasess_0B7_
FN:276,_RNvMNtNtCsgbM7bOyfJDi_18infraware_terminal5input9discoveryNtB2_12CommandCache12expand_alias
FN:54,_RNvMNtNtCsgbM7bOyfJDi_18infraware_terminal5input9discoveryNtB2_12CommandCache12is_available
FN:151,_RNvMNtNtCsgbM7bOyfJDi_18infraware_terminal5input9discoveryNtB2_12CommandCache17load_user_aliases
FN:124,_RNvMNtNtCsgbM7bOyfJDi_18infraware_terminal5input9discoveryNtB2_12CommandCache19get_alias_expansion
FN:210,_RNvMNtNtCsgbM7bOyfJDi_18infraware_terminal5input9discoveryNtB2_12CommandCache19load_system_aliases
FN:33,_RNvMNtNtCsgbM7bOyfJDi_18infraware_terminal5input9discoveryNtB2_12CommandCache3new
FN:297,_RNvMNtNtCsgbM7bOyfJDi_18infraware_terminal5input9discoveryNtB2_12CommandCache5clear
FN:312,_RNvMNtNtCsgbM7bOyfJDi_18infraware_terminal5input9discoveryNtB2_12CommandCache5stats
FN:109,_RNvMNtNtCsgbM7bOyfJDi_18infraware_terminal5input9discoveryNtB2_12CommandCache8is_alias
FN:348,_RNvNtNtCsgbM7bOyfJDi_18infraware_terminal5input9discovery13is_safe_alias
FN:390,_RNvNtNtCsgbM7bOyfJDi_18infraware_terminal5input9discovery13parse_aliases
FN:124,_RNvMNtNtCskvicDDTzzc8_18infraware_terminal5input9discoveryNtB2_12CommandCache19get_alias_expansion
FN:297,_RNvMNtNtCskvicDDTzzc8_18infraware_terminal5input9discoveryNtB2_12CommandCache5clear
FN:312,_RNvMNtNtCskvicDDTzzc8_18infraware_terminal5input9discoveryNtB2_12CommandCache5stats
FN:109,_RNvMNtNtCskvicDDTzzc8_18infraware_terminal5input9discoveryNtB2_12CommandCache8is_alias
FN:276,_RNvMNtNtCskvicDDTzzc8_18infraware_terminal5input9discoveryNtB2_12CommandCache12expand_alias
FN:54,_RNvMNtNtCskvicDDTzzc8_18infraware_terminal5input9discoveryNtB2_12CommandCache12is_available
FN:151,_RNvMNtNtCskvicDDTzzc8_18infraware_terminal5input9discoveryNtB2_12CommandCache17load_user_aliases
FN:210,_RNvMNtNtCskvicDDTzzc8_18infraware_terminal5input9discoveryNtB2_12CommandCache19load_system_aliases
FN:33,_RNvMNtNtCskvicDDTzzc8_18infraware_terminal5input9discoveryNtB2_12CommandCache3new
FN:348,_RNvNtNtCskvicDDTzzc8_18infraware_terminal5input9discovery13is_safe_alias
FN:390,_RNvNtNtCskvicDDTzzc8_18infraware_terminal5input9discovery13parse_aliases
FN:430,_RNCNCNvNtNtCskvicDDTzzc8_18infraware_terminal5input9discovery13parse_aliasess_00B9_
FN:231,_RNCNvMNtNtCskvicDDTzzc8_18infraware_terminal5input9discoveryNtB4_12CommandCache19load_system_aliases0B8_
FN:17,_RNCNvNtNtCskvicDDTzzc8_18infraware_terminal5input9discovery13COMMAND_CACHE0B7_
FN:429,_RNCNvNtNtCskvicDDTzzc8_18infraware_terminal5input9discovery13parse_aliases0B7_
FN:430,_RNCNvNtNtCskvicDDTzzc8_18infraware_terminal5input9discovery13parse_aliasess_0B7_
FN:276,_RNvMNtNtCs9VvCb0vlg4r_18infraware_terminal5input9discoveryNtB2_12CommandCache12expand_alias
FN:54,_RNvMNtNtCs9VvCb0vlg4r_18infraware_terminal5input9discoveryNtB2_12CommandCache12is_available
FN:151,_RNvMNtNtCs9VvCb0vlg4r_18infraware_terminal5input9discoveryNtB2_12CommandCache17load_user_aliases
FN:124,_RNvMNtNtCs9VvCb0vlg4r_18infraware_terminal5input9discoveryNtB2_12CommandCache19get_alias_expansion
FN:210,_RNvMNtNtCs9VvCb0vlg4r_18infraware_terminal5input9discoveryNtB2_12CommandCache19load_system_aliases
FN:33,_RNvMNtNtCs9VvCb0vlg4r_18infraware_terminal5input9discoveryNtB2_12CommandCache3new
FN:297,_RNvMNtNtCs9VvCb0vlg4r_18infraware_terminal5input9discoveryNtB2_12CommandCache5clear
FN:312,_RNvMNtNtCs9VvCb0vlg4r_18infraware_terminal5input9discoveryNtB2_12CommandCache5stats
FN:109,_RNvMNtNtCs9VvCb0vlg4r_18infraware_terminal5input9discoveryNtB2_12CommandCache8is_alias
FN:348,_RNvNtNtCs9VvCb0vlg4r_18infraware_terminal5input9discovery13is_safe_alias
FN:390,_RNvNtNtCs9VvCb0vlg4r_18infraware_terminal5input9discovery13parse_aliases
FN:430,_RNCNCNvNtNtCs9VvCb0vlg4r_18infraware_terminal5input9discovery13parse_aliasess_00B9_
FN:231,_RNCNvMNtNtCs9VvCb0vlg4r_18infraware_terminal5input9discoveryNtB4_12CommandCache19load_system_aliases0B8_
FN:17,_RNCNvNtNtCs9VvCb0vlg4r_18infraware_terminal5input9discovery13COMMAND_CACHE0B7_
FN:429,_RNCNvNtNtCs9VvCb0vlg4r_18infraware_terminal5input9discovery13parse_aliases0B7_
FN:430,_RNCNvNtNtCs9VvCb0vlg4r_18infraware_terminal5input9discovery13parse_aliasess_0B7_
FN:601,_RNCNvNtNtNtCs9VvCb0vlg4r_18infraware_terminal5input9discovery5testss_13test_is_alias0B9_
FN:571,_RNCNvNtNtNtCs9VvCb0vlg4r_18infraware_terminal5input9discovery5testss_16test_cache_clear0B9_
FN:588,_RNCNvNtNtNtCs9VvCb0vlg4r_18infraware_terminal5input9discovery5testss_18test_alias_loading0B9_
FN:479,_RNCNvNtNtNtCs9VvCb0vlg4r_18infraware_terminal5input9discovery5testss_20test_command_caching0B9_
FN:656,_RNCNvNtNtNtCs9VvCb0vlg4r_18infraware_terminal5input9discovery5testss_24test_expand_alias_simple0B9_
FN:628,_RNCNvNtNtNtCs9VvCb0vlg4r_18infraware_terminal5input9discovery5testss_24test_get_alias_expansion0B9_
FN:722,_RNCNvNtNtNtCs9VvCb0vlg4r_18infraware_terminal5input9discovery5testss_24test_load_system_aliases0B9_
FN:457,_RNCNvNtNtNtCs9VvCb0vlg4r_18infraware_terminal5input9discovery5testss_25test_command_availability0B9_
FN:676,_RNCNvNtNtNtCs9VvCb0vlg4r_18infraware_terminal5input9discovery5testss_25test_expand_alias_chained0B9_
FN:699,_RNCNvNtNtNtCs9VvCb0vlg4r_18infraware_terminal5input9discovery5testss_26test_expand_alias_circular0B9_
FN:740,_RNCNvNtNtNtCs9VvCb0vlg4r_18infraware_terminal5input9discovery5testss_36test_alias_priority_user_over_system0B9_
FN:554,_RNvNtNtNtCs9VvCb0vlg4r_18infraware_terminal5input9discovery5testss_18test_empty_content
FN:560,_RNvNtNtNtCs9VvCb0vlg4r_18infraware_terminal5input9discovery5testss_18test_only_comments
FN:512,_RNvNtNtNtCs9VvCb0vlg4r_18infraware_terminal5input9discovery5testss_18test_parse_aliases
FN:547,_RNvNtNtNtCs9VvCb0vlg4r_18infraware_terminal5input9discovery5testss_25test_alias_without_quotes
FN:540,_RNvNtNtNtCs9VvCb0vlg4r_18infraware_terminal5input9discovery5testss_29test_alias_with_double_quotes
FN:533,_RNvNtNtNtCs9VvCb0vlg4r_18infraware_terminal5input9discovery5testss_29test_alias_with_single_quotes
FN:554,_RNvNtNtNtCsdeW3LDTW70x_18infraware_terminal5input9discovery5testss_18test_empty_content
FN:560,_RNvNtNtNtCsdeW3LDTW70x_18infraware_terminal5input9discovery5testss_18test_only_comments
FN:512,_RNvNtNtNtCsdeW3LDTW70x_18infraware_terminal5input9discovery5testss_18test_parse_aliases
FN:547,_RNvNtNtNtCsdeW3LDTW70x_18infraware_terminal5input9discovery5testss_25test_alias_without_quotes
FN:540,_RNvNtNtNtCsdeW3LDTW70x_18infraware_terminal5input9discovery5testss_29test_alias_with_double_quotes
FN:533,_RNvNtNtNtCsdeW3LDTW70x_18infraware_terminal5input9discovery5testss_29test_alias_with_single_quotes
FN:276,_RNvMNtNtCsdeW3LDTW70x_18infraware_terminal5input9discoveryNtB2_12CommandCache12expand_alias
FN:54,_RNvMNtNtCsdeW3LDTW70x_18infraware_terminal5input9discoveryNtB2_12CommandCache12is_available
FN:151,_RNvMNtNtCsdeW3LDTW70x_18infraware_terminal5input9discoveryNtB2_12CommandCache17load_user_aliases
FN:124,_RNvMNtNtCsdeW3LDTW70x_18infraware_terminal5input9discoveryNtB2_12CommandCache19get_alias_expansion
FN:210,_RNvMNtNtCsdeW3LDTW70x_18infraware_terminal5input9discoveryNtB2_12CommandCache19load_system_aliases
FN:33,_RNvMNtNtCsdeW3LDTW70x_18infraware_terminal5input9discoveryNtB2_12CommandCache3new
FN:297,_RNvMNtNtCsdeW3LDTW70x_18infraware_terminal5input9discoveryNtB2_12CommandCache5clear
FN:312,_RNvMNtNtCsdeW3LDTW70x_18infraware_terminal5input9discoveryNtB2_12CommandCache5stats
FN:109,_RNvMNtNtCsdeW3LDTW70x_18infraware_terminal5input9discoveryNtB2_12CommandCache8is_alias
FN:348,_RNvNtNtCsdeW3LDTW70x_18infraware_terminal5input9discovery13is_safe_alias
FN:390,_RNvNtNtCsdeW3LDTW70x_18infraware_terminal5input9discovery13parse_aliases
FN:430,_RNCNCNvNtNtCsdeW3LDTW70x_18infraware_terminal5input9discovery13parse_aliasess_00B9_
FN:231,_RNCNvMNtNtCsdeW3LDTW70x_18infraware_terminal5input9discoveryNtB4_12CommandCache19load_system_aliases0B8_
FN:17,_RNCNvNtNtCsdeW3LDTW70x_18infraware_terminal5input9discovery13COMMAND_CACHE0B7_
FN:429,_RNCNvNtNtCsdeW3LDTW70x_18infraware_terminal5input9discovery13parse_aliases0B7_
FN:430,_RNCNvNtNtCsdeW3LDTW70x_18infraware_terminal5input9discovery13parse_aliasess_0B7_
FN:601,_RNCNvNtNtNtCsdeW3LDTW70x_18infraware_terminal5input9discovery5testss_13test_is_alias0B9_
FN:571,_RNCNvNtNtNtCsdeW3LDTW70x_18infraware_terminal5input9discovery5testss_16test_cache_clear0B9_
FN:588,_RNCNvNtNtNtCsdeW3LDTW70x_18infraware_terminal5input9discovery5testss_18test_alias_loading0B9_
FN:479,_RNCNvNtNtNtCsdeW3LDTW70x_18infraware_terminal5input9discovery5testss_20test_command_caching0B9_
FN:656,_RNCNvNtNtNtCsdeW3LDTW70x_18infraware_terminal5input9discovery5testss_24test_expand_alias_simple0B9_
FN:628,_RNCNvNtNtNtCsdeW3LDTW70x_18infraware_terminal5input9discovery5testss_24test_get_alias_expansion0B9_
FN:722,_RNCNvNtNtNtCsdeW3LDTW70x_18infraware_terminal5input9discovery5testss_24test_load_system_aliases0B9_
FN:457,_RNCNvNtNtNtCsdeW3LDTW70x_18infraware_terminal5input9discovery5testss_25test_command_availability0B9_
FN:676,_RNCNvNtNtNtCsdeW3LDTW70x_18infraware_terminal5input9discovery5testss_25test_expand_alias_chained0B9_
FN:699,_RNCNvNtNtNtCsdeW3LDTW70x_18infraware_terminal5input9discovery5testss_26test_expand_alias_circular0B9_
FN:740,_RNCNvNtNtNtCsdeW3LDTW70x_18infraware_terminal5input9discovery5testss_36test_alias_priority_user_over_system0B9_
FNDA:0,_RNCNCNvNtNtCsgbM7bOyfJDi_18infraware_terminal5input9discovery13parse_aliasess_00B9_
FNDA:11,_RNCNvMNtNtCsgbM7bOyfJDi_18infraware_terminal5input9discoveryNtB4_12CommandCache19load_system_aliases0B8_
FNDA:2,_RNCNvNtNtCsgbM7bOyfJDi_18infraware_terminal5input9discovery13COMMAND_CACHE0B7_
FNDA:0,_RNCNvNtNtCsgbM7bOyfJDi_18infraware_terminal5input9discovery13parse_aliases0B7_
FNDA:0,_RNCNvNtNtCsgbM7bOyfJDi_18infraware_terminal5input9discovery13parse_aliasess_0B7_
FNDA:42,_RNvMNtNtCsgbM7bOyfJDi_18infraware_terminal5input9discoveryNtB2_12CommandCache12expand_alias
FNDA:8,_RNvMNtNtCsgbM7bOyfJDi_18infraware_terminal5input9discoveryNtB2_12CommandCache12is_available
FNDA:0,_RNvMNtNtCsgbM7bOyfJDi_18infraware_terminal5input9discoveryNtB2_12CommandCache17load_user_aliases
FNDA:0,_RNvMNtNtCsgbM7bOyfJDi_18infraware_terminal5input9discoveryNtB2_12CommandCache19get_alias_expansion
FNDA:1,_RNvMNtNtCsgbM7bOyfJDi_18infraware_terminal5input9discoveryNtB2_12CommandCache19load_system_aliases
FNDA:2,_RNvMNtNtCsgbM7bOyfJDi_18infraware_terminal5input9discoveryNtB2_12CommandCache3new
FNDA:4,_RNvMNtNtCsgbM7bOyfJDi_18infraware_terminal5input9discoveryNtB2_12CommandCache5clear
FNDA:1,_RNvMNtNtCsgbM7bOyfJDi_18infraware_terminal5input9discoveryNtB2_12CommandCache5stats
FNDA:0,_RNvMNtNtCsgbM7bOyfJDi_18infraware_terminal5input9discoveryNtB2_12CommandCache8is_alias
FNDA:0,_RNvNtNtCsgbM7bOyfJDi_18infraware_terminal5input9discovery13is_safe_alias
FNDA:11,_RNvNtNtCsgbM7bOyfJDi_18infraware_terminal5input9discovery13parse_aliases
FNDA:0,_RNvMNtNtCskvicDDTzzc8_18infraware_terminal5input9discoveryNtB2_12CommandCache19get_alias_expansion
FNDA:0,_RNvMNtNtCskvicDDTzzc8_18infraware_terminal5input9discoveryNtB2_12CommandCache5clear
FNDA:0,_RNvMNtNtCskvicDDTzzc8_18infraware_terminal5input9discoveryNtB2_12CommandCache5stats
FNDA:0,_RNvMNtNtCskvicDDTzzc8_18infraware_terminal5input9discoveryNtB2_12CommandCache8is_alias
FNDA:0,_RNvMNtNtCskvicDDTzzc8_18infraware_terminal5input9discoveryNtB2_12CommandCache12expand_alias
FNDA:0,_RNvMNtNtCskvicDDTzzc8_18infraware_terminal5input9discoveryNtB2_12CommandCache12is_available
FNDA:0,_RNvMNtNtCskvicDDTzzc8_18infraware_terminal5input9discoveryNtB2_12CommandCache17load_user_aliases
FNDA:0,_RNvMNtNtCskvicDDTzzc8_18infraware_terminal5input9discoveryNtB2_12CommandCache19load_system_aliases
FNDA:0,_RNvMNtNtCskvicDDTzzc8_18infraware_terminal5input9discoveryNtB2_12CommandCache3new
FNDA:0,_RNvNtNtCskvicDDTzzc8_18infraware_terminal5input9discovery13is_safe_alias
FNDA:0,_RNvNtNtCskvicDDTzzc8_18infraware_terminal5input9discovery13parse_aliases
FNDA:0,_RNCNCNvNtNtCskvicDDTzzc8_18infraware_terminal5input9discovery13parse_aliasess_00B9_
FNDA:0,_RNCNvMNtNtCskvicDDTzzc8_18infraware_terminal5input9discoveryNtB4_12CommandCache19load_system_aliases0B8_
FNDA:0,_RNCNvNtNtCskvicDDTzzc8_18infraware_terminal5input9discovery13COMMAND_CACHE0B7_
FNDA:0,_RNCNvNtNtCskvicDDTzzc8_18infraware_terminal5input9discovery13parse_aliases0B7_
FNDA:0,_RNCNvNtNtCskvicDDTzzc8_18infraware_terminal5input9discovery13parse_aliasess_0B7_
FNDA:23,_RNvMNtNtCs9VvCb0vlg4r_18infraware_terminal5input9discoveryNtB2_12CommandCache12expand_alias
FNDA:11,_RNvMNtNtCs9VvCb0vlg4r_18infraware_terminal5input9discoveryNtB2_12CommandCache12is_available
FNDA:2,_RNvMNtNtCs9VvCb0vlg4r_18infraware_terminal5input9discoveryNtB2_12CommandCache17load_user_aliases
FNDA:3,_RNvMNtNtCs9VvCb0vlg4r_18infraware_terminal5input9discoveryNtB2_12CommandCache19get_alias_expansion
FNDA:1,_RNvMNtNtCs9VvCb0vlg4r_18infraware_terminal5input9discoveryNtB2_12CommandCache19load_system_aliases
FNDA:1,_RNvMNtNtCs9VvCb0vlg4r_18infraware_terminal5input9discoveryNtB2_12CommandCache3new
FNDA:18,_RNvMNtNtCs9VvCb0vlg4r_18infraware_terminal5input9discoveryNtB2_12CommandCache5clear
FNDA:4,_RNvMNtNtCs9VvCb0vlg4r_18infraware_terminal5input9discoveryNtB2_12CommandCache5stats
FNDA:2,_RNvMNtNtCs9VvCb0vlg4r_18infraware_terminal5input9discoveryNtB2_12CommandCache8is_alias
FNDA:25,_RNvNtNtCs9VvCb0vlg4r_18infraware_terminal5input9discovery13is_safe_alias
FNDA:19,_RNvNtNtCs9VvCb0vlg4r_18infraware_terminal5input9discovery13parse_aliases
FNDA:2,_RNCNCNvNtNtCs9VvCb0vlg4r_18infraware_terminal5input9discovery13parse_aliasess_00B9_
FNDA:11,_RNCNvMNtNtCs9VvCb0vlg4r_18infraware_terminal5input9discoveryNtB4_12CommandCache19load_system_aliases0B8_
FNDA:1,_RNCNvNtNtCs9VvCb0vlg4r_18infraware_terminal5input9discovery13COMMAND_CACHE0B7_
FNDA:21,_RNCNvNtNtCs9VvCb0vlg4r_18infraware_terminal5input9discovery13parse_aliases0B7_
FNDA:4,_RNCNvNtNtCs9VvCb0vlg4r_18infraware_terminal5input9discovery13parse_aliasess_0B7_
FNDA:1,_RNCNvNtNtNtCs9VvCb0vlg4r_18infraware_terminal5input9discovery5testss_13test_is_alias0B9_
FNDA:1,_RNCNvNtNtNtCs9VvCb0vlg4r_18infraware_terminal5input9discovery5testss_16test_cache_clear0B9_
FNDA:1,_RNCNvNtNtNtCs9VvCb0vlg4r_18infraware_terminal5input9discovery5testss_18test_alias_loading0B9_
FNDA:1,_RNCNvNtNtNtCs9VvCb0vlg4r_18infraware_terminal5input9discovery5testss_20test_command_caching0B9_
FNDA:1,_RNCNvNtNtNtCs9VvCb0vlg4r_18infraware_terminal5input9discovery5testss_24test_expand_alias_simple0B9_
FNDA:1,_RNCNvNtNtNtCs9VvCb0vlg4r_18infraware_terminal5input9discovery5testss_24test_get_alias_expansion0B9_
FNDA:1,_RNCNvNtNtNtCs9VvCb0vlg4r_18infraware_terminal5input9discovery5testss_24test_load_system_aliases0B9_
FNDA:1,_RNCNvNtNtNtCs9VvCb0vlg4r_18infraware_terminal5input9discovery5testss_25test_command_availability0B9_
FNDA:1,_RNCNvNtNtNtCs9VvCb0vlg4r_18infraware_terminal5input9discovery5testss_25test_expand_alias_chained0B9_
FNDA:1,_RNCNvNtNtNtCs9VvCb0vlg4r_18infraware_terminal5input9discovery5testss_26test_expand_alias_circular0B9_
FNDA:1,_RNCNvNtNtNtCs9VvCb0vlg4r_18infraware_terminal5input9discovery5testss_36test_alias_priority_user_over_system0B9_
FNDA:1,_RNvNtNtNtCs9VvCb0vlg4r_18infraware_terminal5input9discovery5testss_18test_empty_content
FNDA:1,_RNvNtNtNtCs9VvCb0vlg4r_18infraware_terminal5input9discovery5testss_18test_only_comments
FNDA:1,_RNvNtNtNtCs9VvCb0vlg4r_18infraware_terminal5input9discovery5testss_18test_parse_aliases
FNDA:1,_RNvNtNtNtCs9VvCb0vlg4r_18infraware_terminal5input9discovery5testss_25test_alias_without_quotes
FNDA:1,_RNvNtNtNtCs9VvCb0vlg4r_18infraware_terminal5input9discovery5testss_29test_alias_with_double_quotes
FNDA:1,_RNvNtNtNtCs9VvCb0vlg4r_18infraware_terminal5input9discovery5testss_29test_alias_with_single_quotes
FNDA:1,_RNvNtNtNtCsdeW3LDTW70x_18infraware_terminal5input9discovery5testss_18test_empty_content
FNDA:1,_RNvNtNtNtCsdeW3LDTW70x_18infraware_terminal5input9discovery5testss_18test_only_comments
FNDA:1,_RNvNtNtNtCsdeW3LDTW70x_18infraware_terminal5input9discovery5testss_18test_parse_aliases
FNDA:1,_RNvNtNtNtCsdeW3LDTW70x_18infraware_terminal5input9discovery5testss_25test_alias_without_quotes
FNDA:1,_RNvNtNtNtCsdeW3LDTW70x_18infraware_terminal5input9discovery5testss_29test_alias_with_double_quotes
FNDA:1,_RNvNtNtNtCsdeW3LDTW70x_18infraware_terminal5input9discovery5testss_29test_alias_with_single_quotes
FNDA:23,_RNvMNtNtCsdeW3LDTW70x_18infraware_terminal5input9discoveryNtB2_12CommandCache12expand_alias
FNDA:11,_RNvMNtNtCsdeW3LDTW70x_18infraware_terminal5input9discoveryNtB2_12CommandCache12is_available
FNDA:2,_RNvMNtNtCsdeW3LDTW70x_18infraware_terminal5input9discoveryNtB2_12CommandCache17load_user_aliases
FNDA:3,_RNvMNtNtCsdeW3LDTW70x_18infraware_terminal5input9discoveryNtB2_12CommandCache19get_alias_expansion
FNDA:1,_RNvMNtNtCsdeW3LDTW70x_18infraware_terminal5input9discoveryNtB2_12CommandCache19load_system_aliases
FNDA:1,_RNvMNtNtCsdeW3LDTW70x_18infraware_terminal5input9discoveryNtB2_12CommandCache3new
FNDA:18,_RNvMNtNtCsdeW3LDTW70x_18infraware_terminal5input9discoveryNtB2_12CommandCache5clear
FNDA:4,_RNvMNtNtCsdeW3LDTW70x_18infraware_terminal5input9discoveryNtB2_12CommandCache5stats
FNDA:2,_RNvMNtNtCsdeW3LDTW70x_18infraware_terminal5input9discoveryNtB2_12CommandCache8is_alias
FNDA:25,_RNvNtNtCsdeW3LDTW70x_18infraware_terminal5input9discovery13is_safe_alias
FNDA:19,_RNvNtNtCsdeW3LDTW70x_18infraware_terminal5input9discovery13parse_aliases
FNDA:2,_RNCNCNvNtNtCsdeW3LDTW70x_18infraware_terminal5input9discovery13parse_aliasess_00B9_
FNDA:11,_RNCNvMNtNtCsdeW3LDTW70x_18infraware_terminal5input9discoveryNtB4_12CommandCache19load_system_aliases0B8_
FNDA:1,_RNCNvNtNtCsdeW3LDTW70x_18infraware_terminal5input9discovery13COMMAND_CACHE0B7_
FNDA:21,_RNCNvNtNtCsdeW3LDTW70x_18infraware_terminal5input9discovery13parse_aliases0B7_
FNDA:4,_RNCNvNtNtCsdeW3LDTW70x_18infraware_terminal5input9discovery13parse_aliasess_0B7_
FNDA:1,_RNCNvNtNtNtCsdeW3LDTW70x_18infraware_terminal5input9discovery5testss_13test_is_alias0B9_
FNDA:1,_RNCNvNtNtNtCsdeW3LDTW70x_18infraware_terminal5input9discovery5testss_16test_cache_clear0B9_
FNDA:1,_RNCNvNtNtNtCsdeW3LDTW70x_18infraware_terminal5input9discovery5testss_18test_alias_loading0B9_
FNDA:1,_RNCNvNtNtNtCsdeW3LDTW70x_18infraware_terminal5input9discovery5testss_20test_command_caching0B9_
FNDA:1,_RNCNvNtNtNtCsdeW3LDTW70x_18infraware_terminal5input9discovery5testss_24test_expand_alias_simple0B9_
FNDA:1,_RNCNvNtNtNtCsdeW3LDTW70x_18infraware_terminal5input9discovery5testss_24test_get_alias_expansion0B9_
FNDA:1,_RNCNvNtNtNtCsdeW3LDTW70x_18infraware_terminal5input9discovery5testss_24test_load_system_aliases0B9_
FNDA:1,_RNCNvNtNtNtCsdeW3LDTW70x_18infraware_terminal5input9discovery5testss_25test_command_availability0B9_
FNDA:1,_RNCNvNtNtNtCsdeW3LDTW70x_18infraware_terminal5input9discovery5testss_25test_expand_alias_chained0B9_
FNDA:1,_RNCNvNtNtNtCsdeW3LDTW70x_18infraware_terminal5input9discovery5testss_26test_expand_alias_circular0B9_
FNDA:1,_RNCNvNtNtNtCsdeW3LDTW70x_18infraware_terminal5input9discovery5testss_36test_alias_priority_user_over_system0B9_
FNF:33
FNH:33
DA:17,4
DA:33,4
DA:34,4
DA:35,4
DA:36,4
DA:37,4
DA:38,4
DA:39,4
DA:54,30
DA:57,30
DA:58,30
DA:59,0
DA:61,0
DA:62,0
DA:66,30
DA:67,7
DA:68,23
DA:69,23
DA:70,0
DA:71,23
DA:75,23
DA:79,23
DA:80,23
DA:81,0
DA:82,0
DA:83,0
DA:87,23
DA:88,21
DA:89,21
DA:90,2
DA:91,2
DA:94,23
DA:95,30
DA:109,4
DA:110,4
DA:111,4
DA:112,0
DA:113,0
DA:114,0
DA:117,4
DA:118,4
DA:124,6
DA:125,6
DA:126,6
DA:127,0
DA:128,0
DA:129,0
DA:132,6
DA:133,6
DA:151,4
DA:152,4
DA:154,4
DA:156,4
DA:157,4
DA:158,0
DA:159,0
DA:160,0
DA:161,4
DA:164,4
DA:165,4
DA:166,4
DA:167,4
DA:168,4
DA:169,0
DA:172,4
DA:173,4
DA:174,0
DA:175,0
DA:176,0
DA:177,4
DA:178,0
DA:181,4
DA:182,4
DA:183,0
DA:184,0
DA:185,0
DA:188,4
DA:189,4
DA:210,3
DA:211,3
DA:214,3
DA:216,3
DA:217,3
DA:220,12
DA:221,9
DA:222,6
DA:223,6
DA:228,3
DA:229,33
DA:230,33
DA:231,33
DA:232,27
DA:233,27
DA:234,27
DA:235,6
DA:237,0
DA:240,3
DA:241,3
DA:242,0
DA:243,0
DA:244,0
DA:249,3
DA:250,3
DA:251,3
DA:253,3
DA:254,3
DA:276,88
DA:277,88
DA:278,88
DA:279,0
DA:280,0
DA:281,0
DA:285,88
DA:286,88
DA:297,40
DA:298,40
DA:299,40
DA:300,0
DA:301,0
DA:302,0
DA:305,40
DA:306,40
DA:307,40
DA:308,40
DA:312,9
DA:313,9
DA:314,9
DA:315,0
DA:316,0
DA:317,0
DA:320,9
DA:321,9
DA:322,9
DA:323,9
DA:324,9
DA:325,9
DA:348,50
DA:362,500
DA:363,450
DA:364,0
DA:365,0
DA:368,0
DA:369,450
DA:372,50
DA:373,50
DA:390,49
DA:391,49
DA:393,1677
DA:394,1677
DA:397,1677
DA:398,696
DA:399,981
DA:402,981
DA:403,50
DA:404,50
DA:405,50
DA:408,50
DA:409,0
DA:410,0
DA:411,0
DA:413,0
DA:414,50
DA:417,50
DA:418,0
DA:419,0
DA:421,0
DA:423,0
DA:424,50
DA:427,50
DA:428,50
DA:429,50
DA:430,50
DA:431,50
DA:434,50
DA:435,0
DA:436,50
DA:438,50
DA:439,0
DA:440,0
DA:441,0
DA:442,0
DA:443,0
DA:444,0
DA:445,931
DA:448,49
DA:449,49
DA:457,2
DA:459,2
DA:463,2
DA:467,2
DA:470,2
DA:473,2
DA:474,2
DA:479,2
DA:480,2
DA:484,2
DA:489,2
DA:492,2
DA:494,2
DA:497,2
DA:498,2
DA:499,0
DA:500,0
DA:501,0
DA:504,2
DA:505,2
DA:506,0
DA:512,2
DA:513,2
DA:514,2
DA:515,2
DA:516,2
DA:517,2
DA:518,2
DA:519,2
DA:520,2
DA:521,2
DA:523,2
DA:525,2
DA:526,2
DA:527,2
DA:528,2
DA:529,2
DA:530,2
DA:533,2
DA:534,2
DA:535,2
DA:536,2
DA:537,2
DA:540,2
DA:541,2
DA:542,2
DA:543,2
DA:544,2
DA:547,2
DA:548,2
DA:549,2
DA:550,2
DA:551,2
DA:554,2
DA:555,2
DA:556,2
DA:557,2
DA:560,2
DA:561,2
DA:562,2
DA:563,2
DA:564,2
DA:565,2
DA:566,2
DA:567,2
DA:571,2
DA:573,2
DA:574,2
DA:577,2
DA:580,2
DA:581,2
DA:582,2
DA:583,2
DA:588,2
DA:591,2
DA:592,2
DA:595,2
DA:601,2
DA:602,2
DA:606,2
DA:607,2
DA:608,0
DA:609,0
DA:610,0
DA:612,0
DA:615,2
DA:616,2
DA:617,2
DA:620,2
DA:621,2
DA:623,2
DA:628,2
DA:629,2
DA:633,2
DA:634,2
DA:635,0
DA:636,0
DA:637,0
DA:639,0
DA:642,2
DA:645,2
DA:646,2
DA:647,2
DA:649,2
DA:651,2
DA:656,2
DA:657,2
DA:661,2
DA:662,2
DA:663,0
DA:665,2
DA:668,2
DA:669,2
DA:671,2
DA:676,2
DA:677,2
DA:682,2
DA:683,2
DA:684,0
DA:686,2
DA:687,2
DA:691,2
DA:692,2
DA:694,2
DA:699,2
DA:700,2
DA:705,2
DA:706,2
DA:707,0
DA:709,2
DA:710,2
DA:714,2
DA:715,2
DA:717,2
DA:722,2
DA:723,2
DA:727,2
DA:730,2
DA:733,2
DA:735,2
DA:740,2
DA:741,2
DA:745,2
DA:746,2
DA:747,0
DA:749,2
DA:750,2
DA:751,2
DA:756,2
DA:757,2
DA:758,0
DA:760,2
DA:761,2
DA:762,2
DA:766,2
DA:767,2
DA:768,2
DA:771,2
BRF:0
BRH:0
LF:348
LH:276
end_of_record
SF:/home/crist/infraware-terminal/terminal-app/src/input/handler.rs
FN:138,_RNCNvMs3_NtNtCsgbM7bOyfJDi_18infraware_terminal5input7handlerNtB7_19KnownCommandHandler16is_known_command0Bb_
FN:54,_RNvMNtNtCsgbM7bOyfJDi_18infraware_terminal5input7handlerNtB2_15ClassifierChain11add_handler
FN:73,_RNvMNtNtCsgbM7bOyfJDi_18infraware_terminal5input7handlerNtB2_15ClassifierChain3len
FN:47,_RNvMNtNtCsgbM7bOyfJDi_18infraware_terminal5input7handlerNtB2_15ClassifierChain3new
FN:62,_RNvMNtNtCsgbM7bOyfJDi_18infraware_terminal5input7handlerNtB2_15ClassifierChain7process
FN:79,_RNvMNtNtCsgbM7bOyfJDi_18infraware_terminal5input7handlerNtB2_15ClassifierChain8is_empty
FN:94,_RNvMs0_NtNtCsgbM7bOyfJDi_18infraware_terminal5input7handlerNtB5_17EmptyInputHandler3new
FN:165,_RNvMs3_NtNtCsgbM7bOyfJDi_18infraware_terminal5input7handlerNtB5_19KnownCommandHandler11add_command
FN:131,_RNvMs3_NtNtCsgbM7bOyfJDi_18infraware_terminal5input7handlerNtB5_19KnownCommandHandler13with_defaults
FN:136,_RNvMs3_NtNtCsgbM7bOyfJDi_18infraware_terminal5input7handlerNtB5_19KnownCommandHandler16is_known_command
FN:142,_RNvMs3_NtNtCsgbM7bOyfJDi_18infraware_terminal5input7handlerNtB5_19KnownCommandHandler16parse_as_command
FN:126,_RNvMs3_NtNtCsgbM7bOyfJDi_18infraware_terminal5input7handlerNtB5_19KnownCommandHandler3new
FN:236,_RNvMs5_NtNtCsgbM7bOyfJDi_18infraware_terminal5input7handlerNtB5_20CommandSyntaxHandler16parse_as_command
FN:206,_RNvMs5_NtNtCsgbM7bOyfJDi_18infraware_terminal5input7handlerNtB5_20CommandSyntaxHandler18looks_like_command
FN:201,_RNvMs5_NtNtCsgbM7bOyfJDi_18infraware_terminal5input7handlerNtB5_20CommandSyntaxHandler3new
FN:291,_RNvMs8_NtNtCsgbM7bOyfJDi_18infraware_terminal5input7handlerNtB5_22NaturalLanguageHandler26is_likely_natural_language
FN:283,_RNvMs8_NtNtCsgbM7bOyfJDi_18infraware_terminal5input7handlerNtB5_22NaturalLanguageHandler3new
FN:568,_RNvMsb_NtNtCsgbM7bOyfJDi_18infraware_terminal5input7handlerNtB5_18PathCommandHandler13is_executable
FN:597,_RNvMsb_NtNtCsgbM7bOyfJDi_18infraware_terminal5input7handlerNtB5_18PathCommandHandler16parse_as_command
FN:553,_RNvMsb_NtNtCsgbM7bOyfJDi_18infraware_terminal5input7handlerNtB5_18PathCommandHandler3new
FN:558,_RNvMsb_NtNtCsgbM7bOyfJDi_18infraware_terminal5input7handlerNtB5_18PathCommandHandler7is_path
FN:658,_RNvMse_NtNtCsgbM7bOyfJDi_18infraware_terminal5input7handlerNtB5_14DefaultHandler3new
FN:10,_RNvNtNtCsgbM7bOyfJDi_18infraware_terminal5input7handler19has_shell_operators
FN:109,_RNvXs1_NtNtCsgbM7bOyfJDi_18infraware_terminal5input7handlerNtB5_17EmptyInputHandlerNtB5_12InputHandler4name
FN:100,_RNvXs1_NtNtCsgbM7bOyfJDi_18infraware_terminal5input7handlerNtB5_17EmptyInputHandlerNtB5_12InputHandler6handle
FN:115,_RNvXs2_NtNtCsgbM7bOyfJDi_18infraware_terminal5input7handlerNtB5_17EmptyInputHandlerNtNtCs5GmCzIpY9Qj_4core7default7Default7default
FN:192,_RNvXs4_NtNtCsgbM7bOyfJDi_18infraware_terminal5input7handlerNtB5_19KnownCommandHandlerNtB5_12InputHandler4name
FN:173,_RNvXs4_NtNtCsgbM7bOyfJDi_18infraware_terminal5input7handlerNtB5_19KnownCommandHandlerNtB5_12InputHandler6handle
FN:268,_RNvXs6_NtNtCsgbM7bOyfJDi_18infraware_terminal5input7handlerNtB5_20CommandSyntaxHandlerNtB5_12InputHandler4name
FN:259,_RNvXs6_NtNtCsgbM7bOyfJDi_18infraware_terminal5input7handlerNtB5_20CommandSyntaxHandlerNtB5_12InputHandler6handle
FN:274,_RNvXs7_NtNtCsgbM7bOyfJDi_18infraware_terminal5input7handlerNtB5_20CommandSyntaxHandlerNtNtCs5GmCzIpY9Qj_4core7default7Default7default
FN:535,_RNvXs9_NtNtCsgbM7bOyfJDi_18infraware_terminal5input7handlerNtB5_22NaturalLanguageHandlerNtB5_12InputHandler4name
FN:526,_RNvXs9_NtNtCsgbM7bOyfJDi_18infraware_terminal5input7handlerNtB5_22NaturalLanguageHandlerNtB5_12InputHandler6handle
FN:85,_RNvXs_NtNtCsgbM7bOyfJDi_18infraware_terminal5input7handlerNtB4_15ClassifierChainNtNtCs5GmCzIpY9Qj_4core7default7Default7default
FN:541,_RNvXsa_NtNtCsgbM7bOyfJDi_18infraware_terminal5input7handlerNtB5_22NaturalLanguageHandlerNtNtCs5GmCzIpY9Qj_4core7default7Default7default
FN:640,_RNvXsc_NtNtCsgbM7bOyfJDi_18infraware_terminal5input7handlerNtB5_18PathCommandHandlerNtB5_12InputHandler4name
FN:620,_RNvXsc_NtNtCsgbM7bOyfJDi_18infraware_terminal5input7handlerNtB5_18PathCommandHandlerNtB5_12InputHandler6handle
FN:646,_RNvXsd_NtNtCsgbM7bOyfJDi_18infraware_terminal5input7handlerNtB5_18PathCommandHandlerNtNtCs5GmCzIpY9Qj_4core7default7Default7default
FN:673,_RNvXsf_NtNtCsgbM7bOyfJDi_18infraware_terminal5input7handlerNtB5_14DefaultHandlerNtB5_12InputHandler4name
FN:664,_RNvXsf_NtNtCsgbM7bOyfJDi_18infraware_terminal5input7handlerNtB5_14DefaultHandlerNtB5_12InputHandler6handle
FN:679,_RNvXsg_NtNtCsgbM7bOyfJDi_18infraware_terminal5input7handlerNtB5_14DefaultHandlerNtNtCs5GmCzIpY9Qj_4core7default7Default7default
FN:54,_RNvMNtNtCskvicDDTzzc8_18infraware_terminal5input7handlerNtB2_15ClassifierChain11add_handler
FN:47,_RNvMNtNtCskvicDDTzzc8_18infraware_terminal5input7handlerNtB2_15ClassifierChain3new
FN:62,_RNvMNtNtCskvicDDTzzc8_18infraware_terminal5input7handlerNtB2_15ClassifierChain7process
FN:94,_RNvMs0_NtNtCskvicDDTzzc8_18infraware_terminal5input7handlerNtB5_17EmptyInputHandler3new
FN:131,_RNvMs3_NtNtCskvicDDTzzc8_18infraware_terminal5input7handlerNtB5_19KnownCommandHandler13with_defaults
FN:136,_RNvMs3_NtNtCskvicDDTzzc8_18infraware_terminal5input7handlerNtB5_19KnownCommandHandler16is_known_command
FN:142,_RNvMs3_NtNtCskvicDDTzzc8_18infraware_terminal5input7handlerNtB5_19KnownCommandHandler16parse_as_command
FN:126,_RNvMs3_NtNtCskvicDDTzzc8_18infraware_terminal5input7handlerNtB5_19KnownCommandHandler3new
FN:236,_RNvMs5_NtNtCskvicDDTzzc8_18infraware_terminal5input7handlerNtB5_20CommandSyntaxHandler16parse_as_command
FN:206,_RNvMs5_NtNtCskvicDDTzzc8_18infraware_terminal5input7handlerNtB5_20CommandSyntaxHandler18looks_like_command
FN:201,_RNvMs5_NtNtCskvicDDTzzc8_18infraware_terminal5input7handlerNtB5_20CommandSyntaxHandler3new
FN:291,_RNvMs8_NtNtCskvicDDTzzc8_18infraware_terminal5input7handlerNtB5_22NaturalLanguageHandler26is_likely_natural_language
FN:283,_RNvMs8_NtNtCskvicDDTzzc8_18infraware_terminal5input7handlerNtB5_22NaturalLanguageHandler3new
FN:568,_RNvMsb_NtNtCskvicDDTzzc8_18infraware_terminal5input7handlerNtB5_18PathCommandHandler13is_executable
FN:597,_RNvMsb_NtNtCskvicDDTzzc8_18infraware_terminal5input7handlerNtB5_18PathCommandHandler16parse_as_command
FN:553,_RNvMsb_NtNtCskvicDDTzzc8_18infraware_terminal5input7handlerNtB5_18PathCommandHandler3new
FN:558,_RNvMsb_NtNtCskvicDDTzzc8_18infraware_terminal5input7handlerNtB5_18PathCommandHandler7is_path
FN:658,_RNvMse_NtNtCskvicDDTzzc8_18infraware_terminal5input7handlerNtB5_14DefaultHandler3new
FN:10,_RNvNtNtCskvicDDTzzc8_18infraware_terminal5input7handler19has_shell_operators
FN:109,_RNvXs1_NtNtCskvicDDTzzc8_18infraware_terminal5input7handlerNtB5_17EmptyInputHandlerNtB5_12InputHandler4name
FN:100,_RNvXs1_NtNtCskvicDDTzzc8_18infraware_terminal5input7handlerNtB5_17EmptyInputHandlerNtB5_12InputHandler6handle
FN:192,_RNvXs4_NtNtCskvicDDTzzc8_18infraware_terminal5input7handlerNtB5_19KnownCommandHandlerNtB5_12InputHandler4name
FN:173,_RNvXs4_NtNtCskvicDDTzzc8_18infraware_terminal5input7handlerNtB5_19KnownCommandHandlerNtB5_12InputHandler6handle
FN:268,_RNvXs6_NtNtCskvicDDTzzc8_18infraware_terminal5input7handlerNtB5_20CommandSyntaxHandlerNtB5_12InputHandler4name
FN:259,_RNvXs6_NtNtCskvicDDTzzc8_18infraware_terminal5input7handlerNtB5_20CommandSyntaxHandlerNtB5_12InputHandler6handle
FN:535,_RNvXs9_NtNtCskvicDDTzzc8_18infraware_terminal5input7handlerNtB5_22NaturalLanguageHandlerNtB5_12InputHandler4name
FN:526,_RNvXs9_NtNtCskvicDDTzzc8_18infraware_terminal5input7handlerNtB5_22NaturalLanguageHandlerNtB5_12InputHandler6handle
FN:640,_RNvXsc_NtNtCskvicDDTzzc8_18infraware_terminal5input7handlerNtB5_18PathCommandHandlerNtB5_12InputHandler4name
FN:620,_RNvXsc_NtNtCskvicDDTzzc8_18infraware_terminal5input7handlerNtB5_18PathCommandHandlerNtB5_12InputHandler6handle
FN:673,_RNvXsf_NtNtCskvicDDTzzc8_18infraware_terminal5input7handlerNtB5_14DefaultHandlerNtB5_12InputHandler4name
FN:664,_RNvXsf_NtNtCskvicDDTzzc8_18infraware_terminal5input7handlerNtB5_14DefaultHandlerNtB5_12InputHandler6handle
FN:73,_RNvMNtNtCskvicDDTzzc8_18infraware_terminal5input7handlerNtB2_15ClassifierChain3len
FN:79,_RNvMNtNtCskvicDDTzzc8_18infraware_terminal5input7handlerNtB2_15ClassifierChain8is_empty
FN:165,_RNvMs3_NtNtCskvicDDTzzc8_18infraware_terminal5input7handlerNtB5_19KnownCommandHandler11add_command
FN:115,_RNvXs2_NtNtCskvicDDTzzc8_18infraware_terminal5input7handlerNtB5_17EmptyInputHandlerNtNtCs5GmCzIpY9Qj_4core7default7Default7default
FN:274,_RNvXs7_NtNtCskvicDDTzzc8_18infraware_terminal5input7handlerNtB5_20CommandSyntaxHandlerNtNtCs5GmCzIpY9Qj_4core7default7Default7default
FN:85,_RNvXs_NtNtCskvicDDTzzc8_18infraware_terminal5input7handlerNtB4_15ClassifierChainNtNtCs5GmCzIpY9Qj_4core7default7Default7default
FN:541,_RNvXsa_NtNtCskvicDDTzzc8_18infraware_terminal5input7handlerNtB5_22NaturalLanguageHandlerNtNtCs5GmCzIpY9Qj_4core7default7Default7default
FN:646,_RNvXsd_NtNtCskvicDDTzzc8_18infraware_terminal5input7handlerNtB5_18PathCommandHandlerNtNtCs5GmCzIpY9Qj_4core7default7Default7default
FN:679,_RNvXsg_NtNtCskvicDDTzzc8_18infraware_terminal5input7handlerNtB5_14DefaultHandlerNtNtCs5GmCzIpY9Qj_4core7default7Default7default
FN:138,_RNCNvMs3_NtNtCskvicDDTzzc8_18infraware_terminal5input7handlerNtB7_19KnownCommandHandler16is_known_command0Bb_
FN:73,_RNvMNtNtCs9VvCb0vlg4r_18infraware_terminal5input7handlerNtB2_15ClassifierChain3len
FN:79,_RNvMNtNtCs9VvCb0vlg4r_18infraware_terminal5input7handlerNtB2_15ClassifierChain8is_empty
FN:165,_RNvMs3_NtNtCs9VvCb0vlg4r_18infraware_terminal5input7handlerNtB5_19KnownCommandHandler11add_command
FN:115,_RNvXs2_NtNtCs9VvCb0vlg4r_18infraware_terminal5input7handlerNtB5_17EmptyInputHandlerNtNtCs5GmCzIpY9Qj_4core7default7Default7default
FN:274,_RNvXs7_NtNtCs9VvCb0vlg4r_18infraware_terminal5input7handlerNtB5_20CommandSyntaxHandlerNtNtCs5GmCzIpY9Qj_4core7default7Default7default
FN:85,_RNvXs_NtNtCs9VvCb0vlg4r_18infraware_terminal5input7handlerNtB4_15ClassifierChainNtNtCs5GmCzIpY9Qj_4core7default7Default7default
FN:541,_RNvXsa_NtNtCs9VvCb0vlg4r_18infraware_terminal5input7handlerNtB5_22NaturalLanguageHandlerNtNtCs5GmCzIpY9Qj_4core7default7Default7default
FN:646,_RNvXsd_NtNtCs9VvCb0vlg4r_18infraware_terminal5input7handlerNtB5_18PathCommandHandlerNtNtCs5GmCzIpY9Qj_4core7default7Default7default
FN:679,_RNvXsg_NtNtCs9VvCb0vlg4r_18infraware_terminal5input7handlerNtB5_14DefaultHandlerNtNtCs5GmCzIpY9Qj_4core7default7Default7default
FN:138,_RNCNvMs3_NtNtCs9VvCb0vlg4r_18infraware_terminal5input7handlerNtB7_19KnownCommandHandler16is_known_command0Bb_
FN:54,_RNvMNtNtCs9VvCb0vlg4r_18infraware_terminal5input7handlerNtB2_15ClassifierChain11add_handler
FN:47,_RNvMNtNtCs9VvCb0vlg4r_18infraware_terminal5input7handlerNtB2_15ClassifierChain3new
FN:62,_RNvMNtNtCs9VvCb0vlg4r_18infraware_terminal5input7handlerNtB2_15ClassifierChain7process
FN:94,_RNvMs0_NtNtCs9VvCb0vlg4r_18infraware_terminal5input7handlerNtB5_17EmptyInputHandler3new
FN:131,_RNvMs3_NtNtCs9VvCb0vlg4r_18infraware_terminal5input7handlerNtB5_19KnownCommandHandler13with_defaults
FN:136,_RNvMs3_NtNtCs9VvCb0vlg4r_18infraware_terminal5input7handlerNtB5_19KnownCommandHandler16is_known_command
FN:142,_RNvMs3_NtNtCs9VvCb0vlg4r_18infraware_terminal5input7handlerNtB5_19KnownCommandHandler16parse_as_command
FN:126,_RNvMs3_NtNtCs9VvCb0vlg4r_18infraware_terminal5input7handlerNtB5_19KnownCommandHandler3new
FN:236,_RNvMs5_NtNtCs9VvCb0vlg4r_18infraware_terminal5input7handlerNtB5_20CommandSyntaxHandler16parse_as_command
FN:206,_RNvMs5_NtNtCs9VvCb0vlg4r_18infraware_terminal5input7handlerNtB5_20CommandSyntaxHandler18looks_like_command
FN:201,_RNvMs5_NtNtCs9VvCb0vlg4r_18infraware_terminal5input7handlerNtB5_20CommandSyntaxHandler3new
FN:291,_RNvMs8_NtNtCs9VvCb0vlg4r_18infraware_terminal5input7handlerNtB5_22NaturalLanguageHandler26is_likely_natural_language
FN:283,_RNvMs8_NtNtCs9VvCb0vlg4r_18infraware_terminal5input7handlerNtB5_22NaturalLanguageHandler3new
FN:568,_RNvMsb_NtNtCs9VvCb0vlg4r_18infraware_terminal5input7handlerNtB5_18PathCommandHandler13is_executable
FN:597,_RNvMsb_NtNtCs9VvCb0vlg4r_18infraware_terminal5input7handlerNtB5_18PathCommandHandler16parse_as_command
FN:553,_RNvMsb_NtNtCs9VvCb0vlg4r_18infraware_terminal5input7handlerNtB5_18PathCommandHandler3new
FN:558,_RNvMsb_NtNtCs9VvCb0vlg4r_18infraware_terminal5input7handlerNtB5_18PathCommandHandler7is_path
FN:658,_RNvMse_NtNtCs9VvCb0vlg4r_18infraware_terminal5input7handlerNtB5_14DefaultHandler3new
FN:10,_RNvNtNtCs9VvCb0vlg4r_18infraware_terminal5input7handler19has_shell_operators
FN:109,_RNvXs1_NtNtCs9VvCb0vlg4r_18infraware_terminal5input7handlerNtB5_17EmptyInputHandlerNtB5_12InputHandler4name
FN:100,_RNvXs1_NtNtCs9VvCb0vlg4r_18infraware_terminal5input7handlerNtB5_17EmptyInputHandlerNtB5_12InputHandler6handle
FN:192,_RNvXs4_NtNtCs9VvCb0vlg4r_18infraware_terminal5input7handlerNtB5_19KnownCommandHandlerNtB5_12InputHandler4name
FN:173,_RNvXs4_NtNtCs9VvCb0vlg4r_18infraware_terminal5input7handlerNtB5_19KnownCommandHandlerNtB5_12InputHandler6handle
FN:268,_RNvXs6_NtNtCs9VvCb0vlg4r_18infraware_terminal5input7handlerNtB5_20CommandSyntaxHandlerNtB5_12InputHandler4name
FN:259,_RNvXs6_NtNtCs9VvCb0vlg4r_18infraware_terminal5input7handlerNtB5_20CommandSyntaxHandlerNtB5_12InputHandler6handle
FN:535,_RNvXs9_NtNtCs9VvCb0vlg4r_18infraware_terminal5input7handlerNtB5_22NaturalLanguageHandlerNtB5_12InputHandler4name
FN:526,_RNvXs9_NtNtCs9VvCb0vlg4r_18infraware_terminal5input7handlerNtB5_22NaturalLanguageHandlerNtB5_12InputHandler6handle
FN:640,_RNvXsc_NtNtCs9VvCb0vlg4r_18infraware_terminal5input7handlerNtB5_18PathCommandHandlerNtB5_12InputHandler4name
FN:620,_RNvXsc_NtNtCs9VvCb0vlg4r_18infraware_terminal5input7handlerNtB5_18PathCommandHandlerNtB5_12InputHandler6handle
FN:673,_RNvXsf_NtNtCs9VvCb0vlg4r_18infraware_terminal5input7handlerNtB5_14DefaultHandlerNtB5_12InputHandler4name
FN:664,_RNvXsf_NtNtCs9VvCb0vlg4r_18infraware_terminal5input7handlerNtB5_14DefaultHandlerNtB5_12InputHandler6handle
FN:769,_RNvNtNtNtCs9VvCb0vlg4r_18infraware_terminal5input7handler5testss_21test_classifier_chain
FN:806,_RNvNtNtNtCs9VvCb0vlg4r_18infraware_terminal5input7handler5testss_24test_chain_order_matters
FN:689,_RNvNtNtNtCs9VvCb0vlg4r_18infraware_terminal5input7handler5testss_24test_empty_input_handler
FN:821,_RNvNtNtNtCs9VvCb0vlg4r_18infraware_terminal5input7handler5testss_25test_path_command_handler
FN:698,_RNvNtNtNtCs9VvCb0vlg4r_18infraware_terminal5input7handler5testss_26test_known_command_handler
FN:717,_RNvNtNtNtCs9VvCb0vlg4r_18infraware_terminal5input7handler5testss_27test_command_syntax_handler
FN:743,_RNvNtNtNtCs9VvCb0vlg4r_18infraware_terminal5input7handler5testss_29test_natural_language_handler
FN:841,_RNvNtNtNtCs9VvCb0vlg4r_18infraware_terminal5input7handler5testss_31test_path_executable_check_unix
FN:769,_RNvNtNtNtCsdeW3LDTW70x_18infraware_terminal5input7handler5testss_21test_classifier_chain
FN:806,_RNvNtNtNtCsdeW3LDTW70x_18infraware_terminal5input7handler5testss_24test_chain_order_matters
FN:689,_RNvNtNtNtCsdeW3LDTW70x_18infraware_terminal5input7handler5testss_24test_empty_input_handler
FN:821,_RNvNtNtNtCsdeW3LDTW70x_18infraware_terminal5input7handler5testss_25test_path_command_handler
FN:698,_RNvNtNtNtCsdeW3LDTW70x_18infraware_terminal5input7handler5testss_26test_known_command_handler
FN:717,_RNvNtNtNtCsdeW3LDTW70x_18infraware_terminal5input7handler5testss_27test_command_syntax_handler
FN:743,_RNvNtNtNtCsdeW3LDTW70x_18infraware_terminal5input7handler5testss_29test_natural_language_handler
FN:841,_RNvNtNtNtCsdeW3LDTW70x_18infraware_terminal5input7handler5testss_31test_path_executable_check_unix
FN:138,_RNCNvMs3_NtNtCsdeW3LDTW70x_18infraware_terminal5input7handlerNtB7_19KnownCommandHandler16is_known_command0Bb_
FN:73,_RNvMNtNtCsdeW3LDTW70x_18infraware_terminal5input7handlerNtB2_15ClassifierChain3len
FN:79,_RNvMNtNtCsdeW3LDTW70x_18infraware_terminal5input7handlerNtB2_15ClassifierChain8is_empty
FN:165,_RNvMs3_NtNtCsdeW3LDTW70x_18infraware_terminal5input7handlerNtB5_19KnownCommandHandler11add_command
FN:115,_RNvXs2_NtNtCsdeW3LDTW70x_18infraware_terminal5input7handlerNtB5_17EmptyInputHandlerNtNtCs5GmCzIpY9Qj_4core7default7Default7default
FN:274,_RNvXs7_NtNtCsdeW3LDTW70x_18infraware_terminal5input7handlerNtB5_20CommandSyntaxHandlerNtNtCs5GmCzIpY9Qj_4core7default7Default7default
FN:85,_RNvXs_NtNtCsdeW3LDTW70x_18infraware_terminal5input7handlerNtB4_15ClassifierChainNtNtCs5GmCzIpY9Qj_4core7default7Default7default
FN:541,_RNvXsa_NtNtCsdeW3LDTW70x_18infraware_terminal5input7handlerNtB5_22NaturalLanguageHandlerNtNtCs5GmCzIpY9Qj_4core7default7Default7default
FN:646,_RNvXsd_NtNtCsdeW3LDTW70x_18infraware_terminal5input7handlerNtB5_18PathCommandHandlerNtNtCs5GmCzIpY9Qj_4core7default7Default7default
FN:679,_RNvXsg_NtNtCsdeW3LDTW70x_18infraware_terminal5input7handlerNtB5_14DefaultHandlerNtNtCs5GmCzIpY9Qj_4core7default7Default7default
FN:54,_RNvMNtNtCsdeW3LDTW70x_18infraware_terminal5input7handlerNtB2_15ClassifierChain11add_handler
FN:47,_RNvMNtNtCsdeW3LDTW70x_18infraware_terminal5input7handlerNtB2_15ClassifierChain3new
FN:62,_RNvMNtNtCsdeW3LDTW70x_18infraware_terminal5input7handlerNtB2_15ClassifierChain7process
FN:94,_RNvMs0_NtNtCsdeW3LDTW70x_18infraware_terminal5input7handlerNtB5_17EmptyInputHandler3new
FN:131,_RNvMs3_NtNtCsdeW3LDTW70x_18infraware_terminal5input7handlerNtB5_19KnownCommandHandler13with_defaults
FN:136,_RNvMs3_NtNtCsdeW3LDTW70x_18infraware_terminal5input7handlerNtB5_19KnownCommandHandler16is_known_command
FN:142,_RNvMs3_NtNtCsdeW3LDTW70x_18infraware_terminal5input7handlerNtB5_19KnownCommandHandler16parse_as_command
FN:126,_RNvMs3_NtNtCsdeW3LDTW70x_18infraware_terminal5input7handlerNtB5_19KnownCommandHandler3new
FN:236,_RNvMs5_NtNtCsdeW3LDTW70x_18infraware_terminal5input7handlerNtB5_20CommandSyntaxHandler16parse_as_command
FN:206,_RNvMs5_NtNtCsdeW3LDTW70x_18infraware_terminal5input7handlerNtB5_20CommandSyntaxHandler18looks_like_command
FN:201,_RNvMs5_NtNtCsdeW3LDTW70x_18infraware_terminal5input7handlerNtB5_20CommandSyntaxHandler3new
FN:291,_RNvMs8_NtNtCsdeW3LDTW70x_18infraware_terminal5input7handlerNtB5_22NaturalLanguageHandler26is_likely_natural_language
FN:283,_RNvMs8_NtNtCsdeW3LDTW70x_18infraware_terminal5input7handlerNtB5_22NaturalLanguageHandler3new
FN:568,_RNvMsb_NtNtCsdeW3LDTW70x_18infraware_terminal5input7handlerNtB5_18PathCommandHandler13is_executable
FN:597,_RNvMsb_NtNtCsdeW3LDTW70x_18infraware_terminal5input7handlerNtB5_18PathCommandHandler16parse_as_command
FN:553,_RNvMsb_NtNtCsdeW3LDTW70x_18infraware_terminal5input7handlerNtB5_18PathCommandHandler3new
FN:558,_RNvMsb_NtNtCsdeW3LDTW70x_18infraware_terminal5input7handlerNtB5_18PathCommandHandler7is_path
FN:658,_RNvMse_NtNtCsdeW3LDTW70x_18infraware_terminal5input7handlerNtB5_14DefaultHandler3new
FN:10,_RNvNtNtCsdeW3LDTW70x_18infraware_terminal5input7handler19has_shell_operators
FN:109,_RNvXs1_NtNtCsdeW3LDTW70x_18infraware_terminal5input7handlerNtB5_17EmptyInputHandlerNtB5_12InputHandler4name
FN:100,_RNvXs1_NtNtCsdeW3LDTW70x_18infraware_terminal5input7handlerNtB5_17EmptyInputHandlerNtB5_12InputHandler6handle
FN:192,_RNvXs4_NtNtCsdeW3LDTW70x_18infraware_terminal5input7handlerNtB5_19KnownCommandHandlerNtB5_12InputHandler4name
FN:173,_RNvXs4_NtNtCsdeW3LDTW70x_18infraware_terminal5input7handlerNtB5_19KnownCommandHandlerNtB5_12InputHandler6handle
FN:268,_RNvXs6_NtNtCsdeW3LDTW70x_18infraware_terminal5input7handlerNtB5_20CommandSyntaxHandlerNtB5_12InputHandler4name
FN:259,_RNvXs6_NtNtCsdeW3LDTW70x_18infraware_terminal5input7handlerNtB5_20CommandSyntaxHandlerNtB5_12InputHandler6handle
FN:535,_RNvXs9_NtNtCsdeW3LDTW70x_18infraware_terminal5input7handlerNtB5_22NaturalLanguageHandlerNtB5_12InputHandler4name
FN:526,_RNvXs9_NtNtCsdeW3LDTW70x_18infraware_terminal5input7handlerNtB5_22NaturalLanguageHandlerNtB5_12InputHandler6handle
FN:640,_RNvXsc_NtNtCsdeW3LDTW70x_18infraware_terminal5input7handlerNtB5_18PathCommandHandlerNtB5_12InputHandler4name
FN:620,_RNvXsc_NtNtCsdeW3LDTW70x_18infraware_terminal5input7handlerNtB5_18PathCommandHandlerNtB5_12InputHandler6handle
FN:673,_RNvXsf_NtNtCsdeW3LDTW70x_18infraware_terminal5input7handlerNtB5_14DefaultHandlerNtB5_12InputHandler4name
FN:664,_RNvXsf_NtNtCsdeW3LDTW70x_18infraware_terminal5input7handlerNtB5_14DefaultHandlerNtB5_12InputHandler6handle
FNDA:1249,_RNCNvMs3_NtNtCsgbM7bOyfJDi_18infraware_terminal5input7handlerNtB7_19KnownCommandHandler16is_known_command0Bb_
FNDA:160,_RNvMNtNtCsgbM7bOyfJDi_18infraware_terminal5input7handlerNtB2_15ClassifierChain11add_handler
FNDA:0,_RNvMNtNtCsgbM7bOyfJDi_18infraware_terminal5input7handlerNtB2_15ClassifierChain3len
FNDA:20,_RNvMNtNtCsgbM7bOyfJDi_18infraware_terminal5input7handlerNtB2_15ClassifierChain3new
FNDA:44,_RNvMNtNtCsgbM7bOyfJDi_18infraware_terminal5input7handlerNtB2_15ClassifierChain7process
FNDA:0,_RNvMNtNtCsgbM7bOyfJDi_18infraware_terminal5input7handlerNtB2_15ClassifierChain8is_empty
FNDA:20,_RNvMs0_NtNtCsgbM7bOyfJDi_18infraware_terminal5input7handlerNtB5_17EmptyInputHandler3new
FNDA:0,_RNvMs3_NtNtCsgbM7bOyfJDi_18infraware_terminal5input7handlerNtB5_19KnownCommandHandler11add_command
FNDA:20,_RNvMs3_NtNtCsgbM7bOyfJDi_18infraware_terminal5input7handlerNtB5_19KnownCommandHandler13with_defaults
FNDA:21,_RNvMs3_NtNtCsgbM7bOyfJDi_18infraware_terminal5input7handlerNtB5_19KnownCommandHandler16is_known_command
FNDA:8,_RNvMs3_NtNtCsgbM7bOyfJDi_18infraware_terminal5input7handlerNtB5_19KnownCommandHandler16parse_as_command
FNDA:20,_RNvMs3_NtNtCsgbM7bOyfJDi_18infraware_terminal5input7handlerNtB5_19KnownCommandHandler3new
FNDA:3,_RNvMs5_NtNtCsgbM7bOyfJDi_18infraware_terminal5input7handlerNtB5_20CommandSyntaxHandler16parse_as_command
FNDA:13,_RNvMs5_NtNtCsgbM7bOyfJDi_18infraware_terminal5input7handlerNtB5_20CommandSyntaxHandler18looks_like_command
FNDA:20,_RNvMs5_NtNtCsgbM7bOyfJDi_18infraware_terminal5input7handlerNtB5_20CommandSyntaxHandler3new
FNDA:10,_RNvMs8_NtNtCsgbM7bOyfJDi_18infraware_terminal5input7handlerNtB5_22NaturalLanguageHandler26is_likely_natural_language
FNDA:20,_RNvMs8_NtNtCsgbM7bOyfJDi_18infraware_terminal5input7handlerNtB5_22NaturalLanguageHandler3new
FNDA:0,_RNvMsb_NtNtCsgbM7bOyfJDi_18infraware_terminal5input7handlerNtB5_18PathCommandHandler13is_executable
FNDA:0,_RNvMsb_NtNtCsgbM7bOyfJDi_18infraware_terminal5input7handlerNtB5_18PathCommandHandler16parse_as_command
FNDA:20,_RNvMsb_NtNtCsgbM7bOyfJDi_18infraware_terminal5input7handlerNtB5_18PathCommandHandler3new
FNDA:21,_RNvMsb_NtNtCsgbM7bOyfJDi_18infraware_terminal5input7handlerNtB5_18PathCommandHandler7is_path
FNDA:20,_RNvMse_NtNtCsgbM7bOyfJDi_18infraware_terminal5input7handlerNtB5_14DefaultHandler3new
FNDA:11,_RNvNtNtCsgbM7bOyfJDi_18infraware_terminal5input7handler19has_shell_operators
FNDA:0,_RNvXs1_NtNtCsgbM7bOyfJDi_18infraware_terminal5input7handlerNtB5_17EmptyInputHandlerNtB5_12InputHandler4name
FNDA:44,_RNvXs1_NtNtCsgbM7bOyfJDi_18infraware_terminal5input7handlerNtB5_17EmptyInputHandlerNtB5_12InputHandler6handle
FNDA:0,_RNvXs2_NtNtCsgbM7bOyfJDi_18infraware_terminal5input7handlerNtB5_17EmptyInputHandlerNtNtCs5GmCzIpY9Qj_4core7default7Default7default
FNDA:0,_RNvXs4_NtNtCsgbM7bOyfJDi_18infraware_terminal5input7handlerNtB5_19KnownCommandHandlerNtB5_12InputHandler4name
FNDA:21,_RNvXs4_NtNtCsgbM7bOyfJDi_18infraware_terminal5input7handlerNtB5_19KnownCommandHandlerNtB5_12InputHandler6handle
FNDA:0,_RNvXs6_NtNtCsgbM7bOyfJDi_18infraware_terminal5input7handlerNtB5_20CommandSyntaxHandlerNtB5_12InputHandler4name
FNDA:13,_RNvXs6_NtNtCsgbM7bOyfJDi_18infraware_terminal5input7handlerNtB5_20CommandSyntaxHandlerNtB5_12InputHandler6handle
FNDA:0,_RNvXs7_NtNtCsgbM7bOyfJDi_18infraware_terminal5input7handlerNtB5_20CommandSyntaxHandlerNtNtCs5GmCzIpY9Qj_4core7default7Default7default
FNDA:0,_RNvXs9_NtNtCsgbM7bOyfJDi_18infraware_terminal5input7handlerNtB5_22NaturalLanguageHandlerNtB5_12InputHandler4name
FNDA:10,_RNvXs9_NtNtCsgbM7bOyfJDi_18infraware_terminal5input7handlerNtB5_22NaturalLanguageHandlerNtB5_12InputHandler6handle
FNDA:0,_RNvXs_NtNtCsgbM7bOyfJDi_18infraware_terminal5input7handlerNtB4_15ClassifierChainNtNtCs5GmCzIpY9Qj_4core7default7Default7default
FNDA:0,_RNvXsa_NtNtCsgbM7bOyfJDi_18infraware_terminal5input7handlerNtB5_22NaturalLanguageHandlerNtNtCs5GmCzIpY9Qj_4core7default7Default7default
FNDA:0,_RNvXsc_NtNtCsgbM7bOyfJDi_18infraware_terminal5input7handlerNtB5_18PathCommandHandlerNtB5_12InputHandler4name
FNDA:21,_RNvXsc_NtNtCsgbM7bOyfJDi_18infraware_terminal5input7handlerNtB5_18PathCommandHandlerNtB5_12InputHandler6handle
FNDA:0,_RNvXsd_NtNtCsgbM7bOyfJDi_18infraware_terminal5input7handlerNtB5_18PathCommandHandlerNtNtCs5GmCzIpY9Qj_4core7default7Default7default
FNDA:0,_RNvXsf_NtNtCsgbM7bOyfJDi_18infraware_terminal5input7handlerNtB5_14DefaultHandlerNtB5_12InputHandler4name
FNDA:0,_RNvXsf_NtNtCsgbM7bOyfJDi_18infraware_terminal5input7handlerNtB5_14DefaultHandlerNtB5_12InputHandler6handle
FNDA:0,_RNvXsg_NtNtCsgbM7bOyfJDi_18infraware_terminal5input7handlerNtB5_14DefaultHandlerNtNtCs5GmCzIpY9Qj_4core7default7Default7default
FNDA:0,_RNvMNtNtCskvicDDTzzc8_18infraware_terminal5input7handlerNtB2_15ClassifierChain11add_handler
FNDA:0,_RNvMNtNtCskvicDDTzzc8_18infraware_terminal5input7handlerNtB2_15ClassifierChain3new
FNDA:0,_RNvMNtNtCskvicDDTzzc8_18infraware_terminal5input7handlerNtB2_15ClassifierChain7process
FNDA:0,_RNvMs0_NtNtCskvicDDTzzc8_18infraware_terminal5input7handlerNtB5_17EmptyInputHandler3new
FNDA:0,_RNvMs3_NtNtCskvicDDTzzc8_18infraware_terminal5input7handlerNtB5_19KnownCommandHandler13with_defaults
FNDA:0,_RNvMs3_NtNtCskvicDDTzzc8_18infraware_terminal5input7handlerNtB5_19KnownCommandHandler16is_known_command
FNDA:0,_RNvMs3_NtNtCskvicDDTzzc8_18infraware_terminal5input7handlerNtB5_19KnownCommandHandler16parse_as_command
FNDA:0,_RNvMs3_NtNtCskvicDDTzzc8_18infraware_terminal5input7handlerNtB5_19KnownCommandHandler3new
FNDA:0,_RNvMs5_NtNtCskvicDDTzzc8_18infraware_terminal5input7handlerNtB5_20CommandSyntaxHandler16parse_as_command
FNDA:0,_RNvMs5_NtNtCskvicDDTzzc8_18infraware_terminal5input7handlerNtB5_20CommandSyntaxHandler18looks_like_command
FNDA:0,_RNvMs5_NtNtCskvicDDTzzc8_18infraware_terminal5input7handlerNtB5_20CommandSyntaxHandler3new
FNDA:0,_RNvMs8_NtNtCskvicDDTzzc8_18infraware_terminal5input7handlerNtB5_22NaturalLanguageHandler26is_likely_natural_language
FNDA:0,_RNvMs8_NtNtCskvicDDTzzc8_18infraware_terminal5input7handlerNtB5_22NaturalLanguageHandler3new
FNDA:0,_RNvMsb_NtNtCskvicDDTzzc8_18infraware_terminal5input7handlerNtB5_18PathCommandHandler13is_executable
FNDA:0,_RNvMsb_NtNtCskvicDDTzzc8_18infraware_terminal5input7handlerNtB5_18PathCommandHandler16parse_as_command
FNDA:0,_RNvMsb_NtNtCskvicDDTzzc8_18infraware_terminal5input7handlerNtB5_18PathCommandHandler3new
FNDA:0,_RNvMsb_NtNtCskvicDDTzzc8_18infraware_terminal5input7handlerNtB5_18PathCommandHandler7is_path
FNDA:0,_RNvMse_NtNtCskvicDDTzzc8_18infraware_terminal5input7handlerNtB5_14DefaultHandler3new
FNDA:0,_RNvNtNtCskvicDDTzzc8_18infraware_terminal5input7handler19has_shell_operators
FNDA:0,_RNvXs1_NtNtCskvicDDTzzc8_18infraware_terminal5input7handlerNtB5_17EmptyInputHandlerNtB5_12InputHandler4name
FNDA:0,_RNvXs1_NtNtCskvicDDTzzc8_18infraware_terminal5input7handlerNtB5_17EmptyInputHandlerNtB5_12InputHandler6handle
FNDA:0,_RNvXs4_NtNtCskvicDDTzzc8_18infraware_terminal5input7handlerNtB5_19KnownCommandHandlerNtB5_12InputHandler4name
FNDA:0,_RNvXs4_NtNtCskvicDDTzzc8_18infraware_terminal5input7handlerNtB5_19KnownCommandHandlerNtB5_12InputHandler6handle
FNDA:0,_RNvXs6_NtNtCskvicDDTzzc8_18infraware_terminal5input7handlerNtB5_20CommandSyntaxHandlerNtB5_12InputHandler4name
FNDA:0,_RNvXs6_NtNtCskvicDDTzzc8_18infraware_terminal5input7handlerNtB5_20CommandSyntaxHandlerNtB5_12InputHandler6handle
FNDA:0,_RNvXs9_NtNtCskvicDDTzzc8_18infraware_terminal5input7handlerNtB5_22NaturalLanguageHandlerNtB5_12InputHandler4name
FNDA:0,_RNvXs9_NtNtCskvicDDTzzc8_18infraware_terminal5input7handlerNtB5_22NaturalLanguageHandlerNtB5_12InputHandler6handle
FNDA:0,_RNvXsc_NtNtCskvicDDTzzc8_18infraware_terminal5input7handlerNtB5_18PathCommandHandlerNtB5_12InputHandler4name
FNDA:0,_RNvXsc_NtNtCskvicDDTzzc8_18infraware_terminal5input7handlerNtB5_18PathCommandHandlerNtB5_12InputHandler6handle
FNDA:0,_RNvXsf_NtNtCskvicDDTzzc8_18infraware_terminal5input7handlerNtB5_14DefaultHandlerNtB5_12InputHandler4name
FNDA:0,_RNvXsf_NtNtCskvicDDTzzc8_18infraware_terminal5input7handlerNtB5_14DefaultHandlerNtB5_12InputHandler6handle
FNDA:0,_RNvMNtNtCskvicDDTzzc8_18infraware_terminal5input7handlerNtB2_15ClassifierChain3len
FNDA:0,_RNvMNtNtCskvicDDTzzc8_18infraware_terminal5input7handlerNtB2_15ClassifierChain8is_empty
FNDA:0,_RNvMs3_NtNtCskvicDDTzzc8_18infraware_terminal5input7handlerNtB5_19KnownCommandHandler11add_command
FNDA:0,_RNvXs2_NtNtCskvicDDTzzc8_18infraware_terminal5input7handlerNtB5_17EmptyInputHandlerNtNtCs5GmCzIpY9Qj_4core7default7Default7default
FNDA:0,_RNvXs7_NtNtCskvicDDTzzc8_18infraware_terminal5input7handlerNtB5_20CommandSyntaxHandlerNtNtCs5GmCzIpY9Qj_4core7default7Default7default
FNDA:0,_RNvXs_NtNtCskvicDDTzzc8_18infraware_terminal5input7handlerNtB4_15ClassifierChainNtNtCs5GmCzIpY9Qj_4core7default7Default7default
FNDA:0,_RNvXsa_NtNtCskvicDDTzzc8_18infraware_terminal5input7handlerNtB5_22NaturalLanguageHandlerNtNtCs5GmCzIpY9Qj_4core7default7Default7default
FNDA:0,_RNvXsd_NtNtCskvicDDTzzc8_18infraware_terminal5input7handlerNtB5_18PathCommandHandlerNtNtCs5GmCzIpY9Qj_4core7default7Default7default
FNDA:0,_RNvXsg_NtNtCskvicDDTzzc8_18infraware_terminal5input7handlerNtB5_14DefaultHandlerNtNtCs5GmCzIpY9Qj_4core7default7Default7default
FNDA:0,_RNCNvMs3_NtNtCskvicDDTzzc8_18infraware_terminal5input7handlerNtB7_19KnownCommandHandler16is_known_command0Bb_
FNDA:0,_RNvMNtNtCs9VvCb0vlg4r_18infraware_terminal5input7handlerNtB2_15ClassifierChain3len
FNDA:0,_RNvMNtNtCs9VvCb0vlg4r_18infraware_terminal5input7handlerNtB2_15ClassifierChain8is_empty
FNDA:0,_RNvMs3_NtNtCs9VvCb0vlg4r_18infraware_terminal5input7handlerNtB5_19KnownCommandHandler11add_command
FNDA:0,_RNvXs2_NtNtCs9VvCb0vlg4r_18infraware_terminal5input7handlerNtB5_17EmptyInputHandlerNtNtCs5GmCzIpY9Qj_4core7default7Default7default
FNDA:0,_RNvXs7_NtNtCs9VvCb0vlg4r_18infraware_terminal5input7handlerNtB5_20CommandSyntaxHandlerNtNtCs5GmCzIpY9Qj_4core7default7Default7default
FNDA:0,_RNvXs_NtNtCs9VvCb0vlg4r_18infraware_terminal5input7handlerNtB4_15ClassifierChainNtNtCs5GmCzIpY9Qj_4core7default7Default7default
FNDA:0,_RNvXsa_NtNtCs9VvCb0vlg4r_18infraware_terminal5input7handlerNtB5_22NaturalLanguageHandlerNtNtCs5GmCzIpY9Qj_4core7default7Default7default
FNDA:0,_RNvXsd_NtNtCs9VvCb0vlg4r_18infraware_terminal5input7handlerNtB5_18PathCommandHandlerNtNtCs5GmCzIpY9Qj_4core7default7Default7default
FNDA:0,_RNvXsg_NtNtCs9VvCb0vlg4r_18infraware_terminal5input7handlerNtB5_14DefaultHandlerNtNtCs5GmCzIpY9Qj_4core7default7Default7default
FNDA:1778,_RNCNvMs3_NtNtCs9VvCb0vlg4r_18infraware_terminal5input7handlerNtB7_19KnownCommandHandler16is_known_command0Bb_
FNDA:48,_RNvMNtNtCs9VvCb0vlg4r_18infraware_terminal5input7handlerNtB2_15ClassifierChain11add_handler
FNDA:8,_RNvMNtNtCs9VvCb0vlg4r_18infraware_terminal5input7handlerNtB2_15ClassifierChain3new
FNDA:24,_RNvMNtNtCs9VvCb0vlg4r_18infraware_terminal5input7handlerNtB2_15ClassifierChain7process
FNDA:8,_RNvMs0_NtNtCs9VvCb0vlg4r_18infraware_terminal5input7handlerNtB5_17EmptyInputHandler3new
FNDA:8,_RNvMs3_NtNtCs9VvCb0vlg4r_18infraware_terminal5input7handlerNtB5_19KnownCommandHandler13with_defaults
FNDA:24,_RNvMs3_NtNtCs9VvCb0vlg4r_18infraware_terminal5input7handlerNtB5_19KnownCommandHandler16is_known_command
FNDA:6,_RNvMs3_NtNtCs9VvCb0vlg4r_18infraware_terminal5input7handlerNtB5_19KnownCommandHandler16parse_as_command
FNDA:8,_RNvMs3_NtNtCs9VvCb0vlg4r_18infraware_terminal5input7handlerNtB5_19KnownCommandHandler3new
FNDA:6,_RNvMs5_NtNtCs9VvCb0vlg4r_18infraware_terminal5input7handlerNtB5_20CommandSyntaxHandler16parse_as_command
FNDA:20,_RNvMs5_NtNtCs9VvCb0vlg4r_18infraware_terminal5input7handlerNtB5_20CommandSyntaxHandler18looks_like_command
FNDA:7,_RNvMs5_NtNtCs9VvCb0vlg4r_18infraware_terminal5input7handlerNtB5_20CommandSyntaxHandler3new
FNDA:17,_RNvMs8_NtNtCs9VvCb0vlg4r_18infraware_terminal5input7handlerNtB5_22NaturalLanguageHandler26is_likely_natural_language
FNDA:7,_RNvMs8_NtNtCs9VvCb0vlg4r_18infraware_terminal5input7handlerNtB5_22NaturalLanguageHandler3new
FNDA:4,_RNvMsb_NtNtCs9VvCb0vlg4r_18infraware_terminal5input7handlerNtB5_18PathCommandHandler13is_executable
FNDA:1,_RNvMsb_NtNtCs9VvCb0vlg4r_18infraware_terminal5input7handlerNtB5_18PathCommandHandler16parse_as_command
FNDA:7,_RNvMsb_NtNtCs9VvCb0vlg4r_18infraware_terminal5input7handlerNtB5_18PathCommandHandler3new
FNDA:25,_RNvMsb_NtNtCs9VvCb0vlg4r_18infraware_terminal5input7handlerNtB5_18PathCommandHandler7is_path
FNDA:7,_RNvMse_NtNtCs9VvCb0vlg4r_18infraware_terminal5input7handlerNtB5_14DefaultHandler3new
FNDA:13,_RNvNtNtCs9VvCb0vlg4r_18infraware_terminal5input7handler19has_shell_operators
FNDA:0,_RNvXs1_NtNtCs9VvCb0vlg4r_18infraware_terminal5input7handlerNtB5_17EmptyInputHandlerNtB5_12InputHandler4name
FNDA:26,_RNvXs1_NtNtCs9VvCb0vlg4r_18infraware_terminal5input7handlerNtB5_17EmptyInputHandlerNtB5_12InputHandler6handle
FNDA:0,_RNvXs4_NtNtCs9VvCb0vlg4r_18infraware_terminal5input7handlerNtB5_19KnownCommandHandlerNtB5_12InputHandler4name
FNDA:24,_RNvXs4_NtNtCs9VvCb0vlg4r_18infraware_terminal5input7handlerNtB5_19KnownCommandHandlerNtB5_12InputHandler6handle
FNDA:0,_RNvXs6_NtNtCs9VvCb0vlg4r_18infraware_terminal5input7handlerNtB5_20CommandSyntaxHandlerNtB5_12InputHandler4name
FNDA:20,_RNvXs6_NtNtCs9VvCb0vlg4r_18infraware_terminal5input7handlerNtB5_20CommandSyntaxHandlerNtB5_12InputHandler6handle
FNDA:0,_RNvXs9_NtNtCs9VvCb0vlg4r_18infraware_terminal5input7handlerNtB5_22NaturalLanguageHandlerNtB5_12InputHandler4name
FNDA:17,_RNvXs9_NtNtCs9VvCb0vlg4r_18infraware_terminal5input7handlerNtB5_22NaturalLanguageHandlerNtB5_12InputHandler6handle
FNDA:0,_RNvXsc_NtNtCs9VvCb0vlg4r_18infraware_terminal5input7handlerNtB5_18PathCommandHandlerNtB5_12InputHandler4name
FNDA:17,_RNvXsc_NtNtCs9VvCb0vlg4r_18infraware_terminal5input7handlerNtB5_18PathCommandHandlerNtB5_12InputHandler6handle
FNDA:0,_RNvXsf_NtNtCs9VvCb0vlg4r_18infraware_terminal5input7handlerNtB5_14DefaultHandlerNtB5_12InputHandler4name
FNDA:2,_RNvXsf_NtNtCs9VvCb0vlg4r_18infraware_terminal5input7handlerNtB5_14DefaultHandlerNtB5_12InputHandler6handle
FNDA:1,_RNvNtNtNtCs9VvCb0vlg4r_18infraware_terminal5input7handler5testss_21test_classifier_chain
FNDA:1,_RNvNtNtNtCs9VvCb0vlg4r_18infraware_terminal5input7handler5testss_24test_chain_order_matters
FNDA:1,_RNvNtNtNtCs9VvCb0vlg4r_18infraware_terminal5input7handler5testss_24test_empty_input_handler
FNDA:1,_RNvNtNtNtCs9VvCb0vlg4r_18infraware_terminal5input7handler5testss_25test_path_command_handler
FNDA:1,_RNvNtNtNtCs9VvCb0vlg4r_18infraware_terminal5input7handler5testss_26test_known_command_handler
FNDA:1,_RNvNtNtNtCs9VvCb0vlg4r_18infraware_terminal5input7handler5testss_27test_command_syntax_handler
FNDA:1,_RNvNtNtNtCs9VvCb0vlg4r_18infraware_terminal5input7handler5testss_29test_natural_language_handler
FNDA:1,_RNvNtNtNtCs9VvCb0vlg4r_18infraware_terminal5input7handler5testss_31test_path_executable_check_unix
FNDA:1,_RNvNtNtNtCsdeW3LDTW70x_18infraware_terminal5input7handler5testss_21test_classifier_chain
FNDA:1,_RNvNtNtNtCsdeW3LDTW70x_18infraware_terminal5input7handler5testss_24test_chain_order_matters
FNDA:1,_RNvNtNtNtCsdeW3LDTW70x_18infraware_terminal5input7handler5testss_24test_empty_input_handler
FNDA:1,_RNvNtNtNtCsdeW3LDTW70x_18infraware_terminal5input7handler5testss_25test_path_command_handler
FNDA:1,_RNvNtNtNtCsdeW3LDTW70x_18infraware_terminal5input7handler5testss_26test_known_command_handler
FNDA:1,_RNvNtNtNtCsdeW3LDTW70x_18infraware_terminal5input7handler5testss_27test_command_syntax_handler
FNDA:1,_RNvNtNtNtCsdeW3LDTW70x_18infraware_terminal5input7handler5testss_29test_natural_language_handler
FNDA:1,_RNvNtNtNtCsdeW3LDTW70x_18infraware_terminal5input7handler5testss_31test_path_executable_check_unix
FNDA:1778,_RNCNvMs3_NtNtCsdeW3LDTW70x_18infraware_terminal5input7handlerNtB7_19KnownCommandHandler16is_known_command0Bb_
FNDA:0,_RNvMNtNtCsdeW3LDTW70x_18infraware_terminal5input7handlerNtB2_15ClassifierChain3len
FNDA:0,_RNvMNtNtCsdeW3LDTW70x_18infraware_terminal5input7handlerNtB2_15ClassifierChain8is_empty
FNDA:0,_RNvMs3_NtNtCsdeW3LDTW70x_18infraware_terminal5input7handlerNtB5_19KnownCommandHandler11add_command
FNDA:0,_RNvXs2_NtNtCsdeW3LDTW70x_18infraware_terminal5input7handlerNtB5_17EmptyInputHandlerNtNtCs5GmCzIpY9Qj_4core7default7Default7default
FNDA:0,_RNvXs7_NtNtCsdeW3LDTW70x_18infraware_terminal5input7handlerNtB5_20CommandSyntaxHandlerNtNtCs5GmCzIpY9Qj_4core7default7Default7default
FNDA:0,_RNvXs_NtNtCsdeW3LDTW70x_18infraware_terminal5input7handlerNtB4_15ClassifierChainNtNtCs5GmCzIpY9Qj_4core7default7Default7default
FNDA:0,_RNvXsa_NtNtCsdeW3LDTW70x_18infraware_terminal5input7handlerNtB5_22NaturalLanguageHandlerNtNtCs5GmCzIpY9Qj_4core7default7Default7default
FNDA:0,_RNvXsd_NtNtCsdeW3LDTW70x_18infraware_terminal5input7handlerNtB5_18PathCommandHandlerNtNtCs5GmCzIpY9Qj_4core7default7Default7default
FNDA:0,_RNvXsg_NtNtCsdeW3LDTW70x_18infraware_terminal5input7handlerNtB5_14DefaultHandlerNtNtCs5GmCzIpY9Qj_4core7default7Default7default
FNDA:48,_RNvMNtNtCsdeW3LDTW70x_18infraware_terminal5input7handlerNtB2_15ClassifierChain11add_handler
FNDA:8,_RNvMNtNtCsdeW3LDTW70x_18infraware_terminal5input7handlerNtB2_15ClassifierChain3new
FNDA:24,_RNvMNtNtCsdeW3LDTW70x_18infraware_terminal5input7handlerNtB2_15ClassifierChain7process
FNDA:8,_RNvMs0_NtNtCsdeW3LDTW70x_18infraware_terminal5input7handlerNtB5_17EmptyInputHandler3new
FNDA:8,_RNvMs3_NtNtCsdeW3LDTW70x_18infraware_terminal5input7handlerNtB5_19KnownCommandHandler13with_defaults
FNDA:24,_RNvMs3_NtNtCsdeW3LDTW70x_18infraware_terminal5input7handlerNtB5_19KnownCommandHandler16is_known_command
FNDA:6,_RNvMs3_NtNtCsdeW3LDTW70x_18infraware_terminal5input7handlerNtB5_19KnownCommandHandler16parse_as_command
FNDA:8,_RNvMs3_NtNtCsdeW3LDTW70x_18infraware_terminal5input7handlerNtB5_19KnownCommandHandler3new
FNDA:6,_RNvMs5_NtNtCsdeW3LDTW70x_18infraware_terminal5input7handlerNtB5_20CommandSyntaxHandler16parse_as_command
FNDA:20,_RNvMs5_NtNtCsdeW3LDTW70x_18infraware_terminal5input7handlerNtB5_20CommandSyntaxHandler18looks_like_command
FNDA:7,_RNvMs5_NtNtCsdeW3LDTW70x_18infraware_terminal5input7handlerNtB5_20CommandSyntaxHandler3new
FNDA:17,_RNvMs8_NtNtCsdeW3LDTW70x_18infraware_terminal5input7handlerNtB5_22NaturalLanguageHandler26is_likely_natural_language
FNDA:7,_RNvMs8_NtNtCsdeW3LDTW70x_18infraware_terminal5input7handlerNtB5_22NaturalLanguageHandler3new
FNDA:4,_RNvMsb_NtNtCsdeW3LDTW70x_18infraware_terminal5input7handlerNtB5_18PathCommandHandler13is_executable
FNDA:1,_RNvMsb_NtNtCsdeW3LDTW70x_18infraware_terminal5input7handlerNtB5_18PathCommandHandler16parse_as_command
FNDA:7,_RNvMsb_NtNtCsdeW3LDTW70x_18infraware_terminal5input7handlerNtB5_18PathCommandHandler3new
FNDA:25,_RNvMsb_NtNtCsdeW3LDTW70x_18infraware_terminal5input7handlerNtB5_18PathCommandHandler7is_path
FNDA:7,_RNvMse_NtNtCsdeW3LDTW70x_18infraware_terminal5input7handlerNtB5_14DefaultHandler3new
FNDA:13,_RNvNtNtCsdeW3LDTW70x_18infraware_terminal5input7handler19has_shell_operators
FNDA:0,_RNvXs1_NtNtCsdeW3LDTW70x_18infraware_terminal5input7handlerNtB5_17EmptyInputHandlerNtB5_12InputHandler4name
FNDA:26,_RNvXs1_NtNtCsdeW3LDTW70x_18infraware_terminal5input7handlerNtB5_17EmptyInputHandlerNtB5_12InputHandler6handle
FNDA:0,_RNvXs4_NtNtCsdeW3LDTW70x_18infraware_terminal5input7handlerNtB5_19KnownCommandHandlerNtB5_12InputHandler4name
FNDA:24,_RNvXs4_NtNtCsdeW3LDTW70x_18infraware_terminal5input7handlerNtB5_19KnownCommandHandlerNtB5_12InputHandler6handle
FNDA:0,_RNvXs6_NtNtCsdeW3LDTW70x_18infraware_terminal5input7handlerNtB5_20CommandSyntaxHandlerNtB5_12InputHandler4name
FNDA:20,_RNvXs6_NtNtCsdeW3LDTW70x_18infraware_terminal5input7handlerNtB5_20CommandSyntaxHandlerNtB5_12InputHandler6handle
FNDA:0,_RNvXs9_NtNtCsdeW3LDTW70x_18infraware_terminal5input7handlerNtB5_22NaturalLanguageHandlerNtB5_12InputHandler4name
FNDA:17,_RNvXs9_NtNtCsdeW3LDTW70x_18infraware_terminal5input7handlerNtB5_22NaturalLanguageHandlerNtB5_12InputHandler6handle
FNDA:0,_RNvXsc_NtNtCsdeW3LDTW70x_18infraware_terminal5input7handlerNtB5_18PathCommandHandlerNtB5_12InputHandler4name
FNDA:17,_RNvXsc_NtNtCsdeW3LDTW70x_18infraware_terminal5input7handlerNtB5_18PathCommandHandlerNtB5_12InputHandler6handle
FNDA:0,_RNvXsf_NtNtCsdeW3LDTW70x_18infraware_terminal5input7handlerNtB5_14DefaultHandlerNtB5_12InputHandler4name
FNDA:2,_RNvXsf_NtNtCsdeW3LDTW70x_18infraware_terminal5input7handlerNtB5_14DefaultHandlerNtB5_12InputHandler6handle
FNF:49
FNH:34
DA:10,37
DA:11,37
DA:12,29
DA:13,29
DA:14,29
DA:15,29
DA:16,29
DA:17,29
DA:18,29
DA:19,29
DA:20,37
DA:47,36
DA:48,36
DA:49,36
DA:50,36
DA:51,36
DA:54,256
DA:55,256
DA:56,256
DA:57,256
DA:62,92
DA:63,399
DA:64,399
DA:65,92
DA:66,307
DA:68,0
DA:69,92
DA:73,0
DA:74,0
DA:75,0
DA:79,0
DA:80,0
DA:81,0
DA:85,0
DA:86,0
DA:87,0
DA:94,36
DA:95,36
DA:96,36
DA:100,96
DA:101,96
DA:102,96
DA:103,10
DA:105,86
DA:107,96
DA:109,0
DA:110,0
DA:111,0
DA:115,0
DA:116,0
DA:117,0
DA:126,36
DA:127,36
DA:128,36
DA:131,36
DA:132,36
DA:133,36
DA:136,69
DA:137,69
DA:138,4805
DA:139,69
DA:142,20
DA:143,20
DA:145,20
DA:146,0
DA:147,20
DA:150,20
DA:151,6
DA:153,14
DA:156,20
DA:157,20
DA:158,20
DA:159,20
DA:160,20
DA:161,20
DA:165,0
DA:166,0
DA:167,0
DA:168,0
DA:169,0
DA:173,69
DA:174,69
DA:176,69
DA:177,49
DA:178,20
DA:181,20
DA:184,20
DA:185,20
DA:188,0
DA:190,69
DA:192,0
DA:193,0
DA:194,0
DA:201,34
DA:202,34
DA:203,34
DA:206,53
DA:208,53
DA:209,11
DA:210,42
DA:213,42
DA:214,2
DA:215,40
DA:218,40
DA:219,0
DA:220,40
DA:223,40
DA:224,2
DA:225,38
DA:228,38
DA:229,0
DA:230,38
DA:232,38
DA:233,53
DA:236,15
DA:237,15
DA:239,15
DA:240,0
DA:241,15
DA:244,15
DA:245,2
DA:247,13
DA:250,15
DA:251,15
DA:252,15
DA:253,15
DA:254,15
DA:255,15
DA:259,53
DA:260,53
DA:261,53
DA:262,15
DA:264,38
DA:266,53
DA:268,0
DA:269,0
DA:270,0
DA:274,0
DA:275,0
DA:276,0
DA:283,34
DA:284,34
DA:285,34
DA:291,44
DA:293,44
DA:296,44
DA:297,32
DA:298,12
DA:301,12
DA:302,0
DA:303,12
DA:306,12
DA:307,2
DA:308,10
DA:311,10
DA:312,10
DA:313,4
DA:314,6
DA:317,6
DA:322,6
DA:323,6
DA:324,6
DA:325,6
DA:326,6
DA:327,6
DA:328,6
DA:329,6
DA:330,6
DA:331,6
DA:332,6
DA:333,6
DA:334,6
DA:335,6
DA:336,6
DA:337,6
DA:338,6
DA:339,6
DA:340,6
DA:341,6
DA:342,6
DA:343,6
DA:344,6
DA:345,6
DA:346,6
DA:347,6
DA:348,6
DA:349,6
DA:350,6
DA:351,6
DA:352,6
DA:353,6
DA:354,6
DA:355,6
DA:356,6
DA:357,6
DA:358,6
DA:359,6
DA:360,6
DA:361,6
DA:362,6
DA:363,6
DA:364,6
DA:365,6
DA:366,6
DA:367,6
DA:368,6
DA:369,6
DA:370,6
DA:371,6
DA:372,6
DA:373,6
DA:374,6
DA:375,6
DA:376,6
DA:377,6
DA:378,6
DA:379,6
DA:380,6
DA:381,6
DA:382,6
DA:383,6
DA:384,6
DA:385,6
DA:386,6
DA:387,6
DA:388,6
DA:389,6
DA:390,6
DA:391,6
DA:393,384
DA:394,378
DA:395,0
DA:396,378
DA:400,6
DA:401,6
DA:402,6
DA:403,6
DA:404,6
DA:405,6
DA:406,6
DA:407,6
DA:408,6
DA:409,6
DA:410,6
DA:411,6
DA:413,194
DA:414,190
DA:415,2
DA:416,188
DA:420,4
DA:421,4
DA:422,4
DA:423,4
DA:424,4
DA:425,4
DA:426,4
DA:427,4
DA:428,4
DA:429,4
DA:430,4
DA:431,4
DA:432,4
DA:433,4
DA:434,4
DA:435,4
DA:436,4
DA:437,4
DA:438,4
DA:439,4
DA:440,4
DA:441,4
DA:442,4
DA:443,4
DA:444,4
DA:445,4
DA:446,4
DA:447,4
DA:448,4
DA:449,4
DA:450,4
DA:451,4
DA:452,4
DA:453,4
DA:454,4
DA:455,4
DA:456,4
DA:457,4
DA:458,4
DA:459,4
DA:460,4
DA:461,4
DA:462,4
DA:463,4
DA:464,4
DA:465,4
DA:466,4
DA:467,4
DA:468,4
DA:469,4
DA:470,4
DA:471,4
DA:472,4
DA:473,4
DA:474,4
DA:475,4
DA:476,4
DA:477,4
DA:478,4
DA:479,4
DA:480,4
DA:481,4
DA:482,4
DA:483,4
DA:484,4
DA:485,4
DA:486,4
DA:487,4
DA:488,4
DA:489,4
DA:490,4
DA:491,4
DA:493,264
DA:494,260
DA:495,0
DA:496,260
DA:500,4
DA:501,4
DA:502,4
DA:503,4
DA:504,4
DA:505,4
DA:506,4
DA:507,4
DA:508,4
DA:509,4
DA:510,4
DA:511,4
DA:512,4
DA:513,4
DA:515,52
DA:516,48
DA:517,0
DA:518,48
DA:521,4
DA:522,44
DA:526,44
DA:527,44
DA:528,44
DA:529,40
DA:531,4
DA:533,44
DA:535,0
DA:536,0
DA:537,0
DA:541,0
DA:542,0
DA:543,0
DA:553,34
DA:554,34
DA:555,34
DA:558,71
DA:559,71
DA:561,71
DA:562,67
DA:563,61
DA:564,71
DA:568,8
DA:572,8
DA:573,8
DA:574,4
DA:578,4
DA:580,8
DA:597,2
DA:598,2
DA:600,2
DA:601,0
DA:602,2
DA:605,2
DA:606,0
DA:608,2
DA:611,2
DA:612,2
DA:613,2
DA:614,2
DA:615,2
DA:616,2
DA:620,55
DA:621,55
DA:623,55
DA:624,53
DA:625,2
DA:628,2
DA:631,2
DA:632,2
DA:636,0
DA:638,55
DA:640,0
DA:641,0
DA:642,0
DA:646,0
DA:647,0
DA:648,0
DA:658,34
DA:659,34
DA:660,34
DA:664,4
DA:665,4
DA:666,4
DA:667,2
DA:669,2
DA:671,4
DA:673,0
DA:674,0
DA:675,0
DA:679,0
DA:680,0
DA:681,0
DA:689,2
DA:690,2
DA:692,2
DA:693,2
DA:694,2
DA:695,2
DA:698,2
DA:699,2
DA:702,2
DA:703,2
DA:706,2
DA:707,2
DA:712,2
DA:713,2
DA:714,2
DA:717,2
DA:718,2
DA:721,2
DA:722,2
DA:727,2
DA:728,2
DA:733,2
DA:734,2
DA:739,2
DA:740,2
DA:743,2
DA:744,2
DA:747,2
DA:748,2
DA:753,2
DA:754,2
DA:759,2
DA:760,2
DA:765,2
DA:766,2
DA:769,2
DA:770,2
DA:771,2
DA:772,2
DA:773,2
DA:774,2
DA:775,2
DA:778,2
DA:781,2
DA:782,2
DA:787,2
DA:788,2
DA:793,2
DA:794,2
DA:799,2
DA:800,2
DA:803,2
DA:806,2
DA:808,2
DA:809,2
DA:810,2
DA:812,2
DA:815,2
DA:817,2
DA:818,2
DA:821,2
DA:822,2
DA:825,2
DA:826,2
DA:827,2
DA:830,2
DA:831,2
DA:834,2
DA:835,2
DA:836,2
DA:837,2
DA:841,2
DA:842,2
DA:845,2
DA:848,2
DA:851,2
DA:852,2
BRF:0
BRH:0
LF:495
LH:435
end_of_record
SF:/home/crist/infraware-terminal/terminal-app/src/input/known_commands.rs
FN:31,_RNvNtNtCsgbM7bOyfJDi_18infraware_terminal5input14known_commands23default_devops_commands
FN:31,_RNvNtNtCskvicDDTzzc8_18infraware_terminal5input14known_commands23default_devops_commands
FN:31,_RNvNtNtCs9VvCb0vlg4r_18infraware_terminal5input14known_commands23default_devops_commands
FN:180,_RNvNtNtNtCs9VvCb0vlg4r_18infraware_terminal5input14known_commands5testss_18test_no_duplicates
FN:158,_RNvNtNtNtCs9VvCb0vlg4r_18infraware_terminal5input14known_commands5testss_29test_contains_docker_commands
FN:151,_RNvNtNtNtCs9VvCb0vlg4r_18infraware_terminal5input14known_commands5testss_31test_default_commands_not_empty
FN:165,_RNvNtNtNtCs9VvCb0vlg4r_18infraware_terminal5input14known_commands5testss_33test_contains_kubernetes_commands
FN:172,_RNvNtNtNtCs9VvCb0vlg4r_18infraware_terminal5input14known_commands5testss_34test_contains_basic_shell_commands
FN:31,_RNvNtNtCsdeW3LDTW70x_18infraware_terminal5input14known_commands23default_devops_commands
FN:180,_RNvNtNtNtCsdeW3LDTW70x_18infraware_terminal5input14known_commands5testss_18test_no_duplicates
FN:158,_RNvNtNtNtCsdeW3LDTW70x_18infraware_terminal5input14known_commands5testss_29test_contains_docker_commands
FN:151,_RNvNtNtNtCsdeW3LDTW70x_18infraware_terminal5input14known_commands5testss_31test_default_commands_not_empty
FN:165,_RNvNtNtNtCsdeW3LDTW70x_18infraware_terminal5input14known_commands5testss_33test_contains_kubernetes_commands
FN:172,_RNvNtNtNtCsdeW3LDTW70x_18infraware_terminal5input14known_commands5testss_34test_contains_basic_shell_commands
FNDA:40,_RNvNtNtCsgbM7bOyfJDi_18infraware_terminal5input14known_commands23default_devops_commands
FNDA:0,_RNvNtNtCskvicDDTzzc8_18infraware_terminal5input14known_commands23default_devops_commands
FNDA:28,_RNvNtNtCs9VvCb0vlg4r_18infraware_terminal5input14known_commands23default_devops_commands
FNDA:1,_RNvNtNtNtCs9VvCb0vlg4r_18infraware_terminal5input14known_commands5testss_18test_no_duplicates
FNDA:1,_RNvNtNtNtCs9VvCb0vlg4r_18infraware_terminal5input14known_commands5testss_29test_contains_docker_commands
FNDA:1,_RNvNtNtNtCs9VvCb0vlg4r_18infraware_terminal5input14known_commands5testss_31test_default_commands_not_empty
FNDA:1,_RNvNtNtNtCs9VvCb0vlg4r_18infraware_terminal5input14known_commands5testss_33test_contains_kubernetes_commands
FNDA:1,_RNvNtNtNtCs9VvCb0vlg4r_18infraware_terminal5input14known_commands5testss_34test_contains_basic_shell_commands
FNDA:28,_RNvNtNtCsdeW3LDTW70x_18infraware_terminal5input14known_commands23default_devops_commands
FNDA:1,_RNvNtNtNtCsdeW3LDTW70x_18infraware_terminal5input14known_commands5testss_18test_no_duplicates
FNDA:1,_RNvNtNtNtCsdeW3LDTW70x_18infraware_terminal5input14known_commands5testss_29test_contains_docker_commands
FNDA:1,_RNvNtNtNtCsdeW3LDTW70x_18infraware_terminal5input14known_commands5testss_31test_default_commands_not_empty
FNDA:1,_RNvNtNtNtCsdeW3LDTW70x_18infraware_terminal5input14known_commands5testss_33test_contains_kubernetes_commands
FNDA:1,_RNvNtNtNtCsdeW3LDTW70x_18infraware_terminal5input14known_commands5testss_34test_contains_basic_shell_commands
FNF:6
FNH:6
DA:31,96
DA:32,96
DA:35,96
DA:36,96
DA:37,96
DA:38,96
DA:39,96
DA:40,96
DA:41,96
DA:42,96
DA:43,96
DA:44,96
DA:45,96
DA:46,96
DA:47,96
DA:48,96
DA:49,96
DA:50,96
DA:51,96
DA:52,96
DA:53,96
DA:55,96
DA:56,96
DA:57,96
DA:58,96
DA:59,96
DA:60,96
DA:61,96
DA:62,96
DA:63,96
DA:64,96
DA:66,96
DA:67,96
DA:68,96
DA:69,96
DA:70,96
DA:71,96
DA:72,96
DA:74,96
DA:75,96
DA:76,96
DA:77,96
DA:78,96
DA:79,96
DA:80,96
DA:81,96
DA:82,96
DA:83,96
DA:84,96
DA:85,96
DA:86,96
DA:88,96
DA:89,96
DA:90,96
DA:91,96
DA:92,96
DA:93,96
DA:94,96
DA:95,96
DA:96,96
DA:98,96
DA:99,96
DA:100,96
DA:102,96
DA:103,96
DA:104,96
DA:105,96
DA:107,96
DA:108,96
DA:109,96
DA:110,96
DA:111,96
DA:112,96
DA:114,96
DA:115,96
DA:116,96
DA:118,96
DA:119,96
DA:120,96
DA:121,96
DA:122,96
DA:123,96
DA:124,96
DA:125,96
DA:126,96
DA:127,96
DA:128,96
DA:130,96
DA:131,96
DA:132,96
DA:134,96
DA:135,96
DA:136,96
DA:137,96
DA:138,96
DA:139,96
DA:141,96
DA:142,96
DA:143,96
DA:144,96
DA:151,2
DA:152,2
DA:153,2
DA:154,2
DA:155,2
DA:158,2
DA:159,2
DA:160,2
DA:161,2
DA:162,2
DA:165,2
DA:166,2
DA:167,2
DA:168,2
DA:169,2
DA:172,2
DA:173,2
DA:174,2
DA:175,2
DA:176,2
DA:177,2
DA:180,2
DA:181,2
DA:182,2
DA:183,2
DA:184,2
DA:185,2
DA:186,2
DA:187,2
DA:188,0
DA:190,2
BRF:0
BRH:0
LF:131
LH:130
end_of_record
SF:/home/crist/infraware-terminal/terminal-app/src/input/parser.rs
FN:22,_RNvMNtNtCsgbM7bOyfJDi_18infraware_terminal5input6parserNtB2_13CommandParser15quote_if_needed
FN:31,_RNvMNtNtCsgbM7bOyfJDi_18infraware_terminal5input6parserNtB2_13CommandParser4join
FN:11,_RNvMNtNtCsgbM7bOyfJDi_18infraware_terminal5input6parserNtB2_13CommandParser5parse
FN:11,_RNvMNtNtCskvicDDTzzc8_18infraware_terminal5input6parserNtB2_13CommandParser5parse
FN:22,_RNvMNtNtCskvicDDTzzc8_18infraware_terminal5input6parserNtB2_13CommandParser15quote_if_needed
FN:31,_RNvMNtNtCskvicDDTzzc8_18infraware_terminal5input6parserNtB2_13CommandParser4join
FN:46,_RNvNtNtNtCs9VvCb0vlg4r_18infraware_terminal5input6parser5testss_17test_parse_simple
FN:60,_RNvNtNtNtCs9VvCb0vlg4r_18infraware_terminal5input6parser5testss_18test_parse_complex
FN:68,_RNvNtNtNtCs9VvCb0vlg4r_18infraware_terminal5input6parser5testss_20test_quote_if_needed
FN:53,_RNvNtNtNtCs9VvCb0vlg4r_18infraware_terminal5input6parser5testss_22test_parse_with_quotes
FN:74,_RNvNtNtNtCs9VvCb0vlg4r_18infraware_terminal5input6parser5testss_9test_join
FN:22,_RNvMNtNtCs9VvCb0vlg4r_18infraware_terminal5input6parserNtB2_13CommandParser15quote_if_needed
FN:31,_RNvMNtNtCs9VvCb0vlg4r_18infraware_terminal5input6parserNtB2_13CommandParser4join
FN:11,_RNvMNtNtCs9VvCb0vlg4r_18infraware_terminal5input6parserNtB2_13CommandParser5parse
FN:22,_RNvMNtNtCsdeW3LDTW70x_18infraware_terminal5input6parserNtB2_13CommandParser15quote_if_needed
FN:31,_RNvMNtNtCsdeW3LDTW70x_18infraware_terminal5input6parserNtB2_13CommandParser4join
FN:11,_RNvMNtNtCsdeW3LDTW70x_18infraware_terminal5input6parserNtB2_13CommandParser5parse
FN:46,_RNvNtNtNtCsdeW3LDTW70x_18infraware_terminal5input6parser5testss_17test_parse_simple
FN:60,_RNvNtNtNtCsdeW3LDTW70x_18infraware_terminal5input6parser5testss_18test_parse_complex
FN:68,_RNvNtNtNtCsdeW3LDTW70x_18infraware_terminal5input6parser5testss_20test_quote_if_needed
FN:53,_RNvNtNtNtCsdeW3LDTW70x_18infraware_terminal5input6parser5testss_22test_parse_with_quotes
FN:74,_RNvNtNtNtCsdeW3LDTW70x_18infraware_terminal5input6parser5testss_9test_join
FNDA:0,_RNvMNtNtCsgbM7bOyfJDi_18infraware_terminal5input6parserNtB2_13CommandParser15quote_if_needed
FNDA:0,_RNvMNtNtCsgbM7bOyfJDi_18infraware_terminal5input6parserNtB2_13CommandParser4join
FNDA:21,_RNvMNtNtCsgbM7bOyfJDi_18infraware_terminal5input6parserNtB2_13CommandParser5parse
FNDA:0,_RNvMNtNtCskvicDDTzzc8_18infraware_terminal5input6parserNtB2_13CommandParser5parse
FNDA:0,_RNvMNtNtCskvicDDTzzc8_18infraware_terminal5input6parserNtB2_13CommandParser15quote_if_needed
FNDA:0,_RNvMNtNtCskvicDDTzzc8_18infraware_terminal5input6parserNtB2_13CommandParser4join
FNDA:1,_RNvNtNtNtCs9VvCb0vlg4r_18infraware_terminal5input6parser5testss_17test_parse_simple
FNDA:1,_RNvNtNtNtCs9VvCb0vlg4r_18infraware_terminal5input6parser5testss_18test_parse_complex
FNDA:1,_RNvNtNtNtCs9VvCb0vlg4r_18infraware_terminal5input6parser5testss_20test_quote_if_needed
FNDA:1,_RNvNtNtNtCs9VvCb0vlg4r_18infraware_terminal5input6parser5testss_22test_parse_with_quotes
FNDA:1,_RNvNtNtNtCs9VvCb0vlg4r_18infraware_terminal5input6parser5testss_9test_join
FNDA:4,_RNvMNtNtCs9VvCb0vlg4r_18infraware_terminal5input6parserNtB2_13CommandParser15quote_if_needed
FNDA:1,_RNvMNtNtCs9VvCb0vlg4r_18infraware_terminal5input6parserNtB2_13CommandParser4join
FNDA:15,_RNvMNtNtCs9VvCb0vlg4r_18infraware_terminal5input6parserNtB2_13CommandParser5parse
FNDA:4,_RNvMNtNtCsdeW3LDTW70x_18infraware_terminal5input6parserNtB2_13CommandParser15quote_if_needed
FNDA:1,_RNvMNtNtCsdeW3LDTW70x_18infraware_terminal5input6parserNtB2_13CommandParser4join
FNDA:15,_RNvMNtNtCsdeW3LDTW70x_18infraware_terminal5input6parserNtB2_13CommandParser5parse
FNDA:1,_RNvNtNtNtCsdeW3LDTW70x_18infraware_terminal5input6parser5testss_17test_parse_simple
FNDA:1,_RNvNtNtNtCsdeW3LDTW70x_18infraware_terminal5input6parser5testss_18test_parse_complex
FNDA:1,_RNvNtNtNtCsdeW3LDTW70x_18infraware_terminal5input6parser5testss_20test_quote_if_needed
FNDA:1,_RNvNtNtNtCsdeW3LDTW70x_18infraware_terminal5input6parser5testss_22test_parse_with_quotes
FNDA:1,_RNvNtNtNtCsdeW3LDTW70x_18infraware_terminal5input6parser5testss_9test_join
FNF:8
FNH:8
DA:11,51
DA:12,51
DA:14,51
DA:15,0
DA:16,51
DA:18,51
DA:19,51
DA:22,8
DA:23,8
DA:24,4
DA:26,4
DA:28,8
DA:31,2
DA:32,2
DA:33,6
DA:34,4
DA:35,4
DA:36,4
DA:37,2
DA:38,2
DA:46,2
DA:47,2
DA:48,2
DA:49,2
DA:50,2
DA:53,2
DA:54,2
DA:55,2
DA:56,2
DA:57,2
DA:60,2
DA:61,2
DA:62,2
DA:63,2
DA:64,2
DA:65,2
DA:68,2
DA:69,2
DA:70,2
DA:71,2
DA:74,2
DA:75,2
DA:76,2
DA:77,2
BRF:0
BRH:0
LF:44
LH:43
end_of_record
SF:/home/crist/infraware-terminal/terminal-app/src/input/patterns.rs
FN:125,_RNvMNtNtCsgbM7bOyfJDi_18infraware_terminal5input8patternsNtB2_16CompiledPatterns12has_articlesB6_
FN:113,_RNvMNtNtCsgbM7bOyfJDi_18infraware_terminal5input8patternsNtB2_16CompiledPatterns19has_shell_operatorsB6_
FN:119,_RNvMNtNtCsgbM7bOyfJDi_18infraware_terminal5input8patternsNtB2_16CompiledPatterns25starts_with_question_wordB6_
FN:107,_RNvMNtNtCsgbM7bOyfJDi_18infraware_terminal5input8patternsNtB2_16CompiledPatterns31has_natural_language_indicatorsB6_
FN:94,_RNvMNtNtCsgbM7bOyfJDi_18infraware_terminal5input8patternsNtB2_16CompiledPatterns3get
FN:36,_RNCNvNtNtCsgbM7bOyfJDi_18infraware_terminal5input8patterns8PATTERNS0B7_
FN:101,_RNvMNtNtCskvicDDTzzc8_18infraware_terminal5input8patternsNtB2_16CompiledPatterns18has_command_syntaxB6_
FN:36,_RNCNvNtNtCskvicDDTzzc8_18infraware_terminal5input8patterns8PATTERNS0B7_
FN:125,_RNvMNtNtCskvicDDTzzc8_18infraware_terminal5input8patternsNtB2_16CompiledPatterns12has_articlesB6_
FN:113,_RNvMNtNtCskvicDDTzzc8_18infraware_terminal5input8patternsNtB2_16CompiledPatterns19has_shell_operatorsB6_
FN:119,_RNvMNtNtCskvicDDTzzc8_18infraware_terminal5input8patternsNtB2_16CompiledPatterns25starts_with_question_wordB6_
FN:107,_RNvMNtNtCskvicDDTzzc8_18infraware_terminal5input8patternsNtB2_16CompiledPatterns31has_natural_language_indicatorsB6_
FN:94,_RNvMNtNtCskvicDDTzzc8_18infraware_terminal5input8patternsNtB2_16CompiledPatterns3get
FN:222,_RNvNtNtNtCs9VvCb0vlg4r_18infraware_terminal5input8patterns5testss_13test_articles
FN:240,_RNvNtNtNtCs9VvCb0vlg4r_18infraware_terminal5input8patterns5testss_15test_edge_cases
FN:174,_RNvNtNtNtCs9VvCb0vlg4r_18infraware_terminal5input8patterns5testss_20test_shell_operators
FN:197,_RNvNtNtNtCs9VvCb0vlg4r_18infraware_terminal5input8patterns5testss_27test_question_words_english
FN:135,_RNvNtNtNtCs9VvCb0vlg4r_18infraware_terminal5input8patterns5testss_28test_command_syntax_patterns
FN:157,_RNvNtNtNtCs9VvCb0vlg4r_18infraware_terminal5input8patterns5testss_30test_natural_language_patterns
FN:36,_RNCNvNtNtCs9VvCb0vlg4r_18infraware_terminal5input8patterns8PATTERNS0B7_
FN:125,_RNvMNtNtCs9VvCb0vlg4r_18infraware_terminal5input8patternsNtB2_16CompiledPatterns12has_articlesB6_
FN:101,_RNvMNtNtCs9VvCb0vlg4r_18infraware_terminal5input8patternsNtB2_16CompiledPatterns18has_command_syntaxB6_
FN:113,_RNvMNtNtCs9VvCb0vlg4r_18infraware_terminal5input8patternsNtB2_16CompiledPatterns19has_shell_operatorsB6_
FN:119,_RNvMNtNtCs9VvCb0vlg4r_18infraware_terminal5input8patternsNtB2_16CompiledPatterns25starts_with_question_wordB6_
FN:107,_RNvMNtNtCs9VvCb0vlg4r_18infraware_terminal5input8patternsNtB2_16CompiledPatterns31has_natural_language_indicatorsB6_
FN:94,_RNvMNtNtCs9VvCb0vlg4r_18infraware_terminal5input8patternsNtB2_16CompiledPatterns3get
FN:222,_RNvNtNtNtCsdeW3LDTW70x_18infraware_terminal5input8patterns5testss_13test_articles
FN:240,_RNvNtNtNtCsdeW3LDTW70x_18infraware_terminal5input8patterns5testss_15test_edge_cases
FN:174,_RNvNtNtNtCsdeW3LDTW70x_18infraware_terminal5input8patterns5testss_20test_shell_operators
FN:197,_RNvNtNtNtCsdeW3LDTW70x_18infraware_terminal5input8patterns5testss_27test_question_words_english
FN:135,_RNvNtNtNtCsdeW3LDTW70x_18infraware_terminal5input8patterns5testss_28test_command_syntax_patterns
FN:157,_RNvNtNtNtCsdeW3LDTW70x_18infraware_terminal5input8patterns5testss_30test_natural_language_patterns
FN:36,_RNCNvNtNtCsdeW3LDTW70x_18infraware_terminal5input8patterns8PATTERNS0B7_
FN:125,_RNvMNtNtCsdeW3LDTW70x_18infraware_terminal5input8patternsNtB2_16CompiledPatterns12has_articlesB6_
FN:101,_RNvMNtNtCsdeW3LDTW70x_18infraware_terminal5input8patternsNtB2_16CompiledPatterns18has_command_syntaxB6_
FN:113,_RNvMNtNtCsdeW3LDTW70x_18infraware_terminal5input8patternsNtB2_16CompiledPatterns19has_shell_operatorsB6_
FN:119,_RNvMNtNtCsdeW3LDTW70x_18infraware_terminal5input8patternsNtB2_16CompiledPatterns25starts_with_question_wordB6_
FN:107,_RNvMNtNtCsdeW3LDTW70x_18infraware_terminal5input8patternsNtB2_16CompiledPatterns31has_natural_language_indicatorsB6_
FN:94,_RNvMNtNtCsdeW3LDTW70x_18infraware_terminal5input8patternsNtB2_16CompiledPatterns3get
FNDA:0,_RNvMNtNtCsgbM7bOyfJDi_18infraware_terminal5input8patternsNtB2_16CompiledPatterns12has_articlesB6_
FNDA:0,_RNvMNtNtCsgbM7bOyfJDi_18infraware_terminal5input8patternsNtB2_16CompiledPatterns19has_shell_operatorsB6_
FNDA:0,_RNvMNtNtCsgbM7bOyfJDi_18infraware_terminal5input8patternsNtB2_16CompiledPatterns25starts_with_question_wordB6_
FNDA:10,_RNvMNtNtCsgbM7bOyfJDi_18infraware_terminal5input8patternsNtB2_16CompiledPatterns31has_natural_language_indicatorsB6_
FNDA:10,_RNvMNtNtCsgbM7bOyfJDi_18infraware_terminal5input8patternsNtB2_16CompiledPatterns3get
FNDA:2,_RNCNvNtNtCsgbM7bOyfJDi_18infraware_terminal5input8patterns8PATTERNS0B7_
FNDA:0,_RNvMNtNtCskvicDDTzzc8_18infraware_terminal5input8patternsNtB2_16CompiledPatterns18has_command_syntaxB6_
FNDA:0,_RNCNvNtNtCskvicDDTzzc8_18infraware_terminal5input8patterns8PATTERNS0B7_
FNDA:0,_RNvMNtNtCskvicDDTzzc8_18infraware_terminal5input8patternsNtB2_16CompiledPatterns12has_articlesB6_
FNDA:0,_RNvMNtNtCskvicDDTzzc8_18infraware_terminal5input8patternsNtB2_16CompiledPatterns19has_shell_operatorsB6_
FNDA:0,_RNvMNtNtCskvicDDTzzc8_18infraware_terminal5input8patternsNtB2_16CompiledPatterns25starts_with_question_wordB6_
FNDA:0,_RNvMNtNtCskvicDDTzzc8_18infraware_terminal5input8patternsNtB2_16CompiledPatterns31has_natural_language_indicatorsB6_
FNDA:0,_RNvMNtNtCskvicDDTzzc8_18infraware_terminal5input8patternsNtB2_16CompiledPatterns3get
FNDA:1,_RNvNtNtNtCs9VvCb0vlg4r_18infraware_terminal5input8patterns5testss_13test_articles
FNDA:1,_RNvNtNtNtCs9VvCb0vlg4r_18infraware_terminal5input8patterns5testss_15test_edge_cases
FNDA:1,_RNvNtNtNtCs9VvCb0vlg4r_18infraware_terminal5input8patterns5testss_20test_shell_operators
FNDA:1,_RNvNtNtNtCs9VvCb0vlg4r_18infraware_terminal5input8patterns5testss_27test_question_words_english
FNDA:1,_RNvNtNtNtCs9VvCb0vlg4r_18infraware_terminal5input8patterns5testss_28test_command_syntax_patterns
FNDA:1,_RNvNtNtNtCs9VvCb0vlg4r_18infraware_terminal5input8patterns5testss_30test_natural_language_patterns
FNDA:1,_RNCNvNtNtCs9VvCb0vlg4r_18infraware_terminal5input8patterns8PATTERNS0B7_
FNDA:17,_RNvMNtNtCs9VvCb0vlg4r_18infraware_terminal5input8patternsNtB2_16CompiledPatterns12has_articlesB6_
FNDA:10,_RNvMNtNtCs9VvCb0vlg4r_18infraware_terminal5input8patternsNtB2_16CompiledPatterns18has_command_syntaxB6_
FNDA:10,_RNvMNtNtCs9VvCb0vlg4r_18infraware_terminal5input8patternsNtB2_16CompiledPatterns19has_shell_operatorsB6_
FNDA:23,_RNvMNtNtCs9VvCb0vlg4r_18infraware_terminal5input8patternsNtB2_16CompiledPatterns25starts_with_question_wordB6_
FNDA:23,_RNvMNtNtCs9VvCb0vlg4r_18infraware_terminal5input8patternsNtB2_16CompiledPatterns31has_natural_language_indicatorsB6_
FNDA:23,_RNvMNtNtCs9VvCb0vlg4r_18infraware_terminal5input8patternsNtB2_16CompiledPatterns3get
FNDA:1,_RNvNtNtNtCsdeW3LDTW70x_18infraware_terminal5input8patterns5testss_13test_articles
FNDA:1,_RNvNtNtNtCsdeW3LDTW70x_18infraware_terminal5input8patterns5testss_15test_edge_cases
FNDA:1,_RNvNtNtNtCsdeW3LDTW70x_18infraware_terminal5input8patterns5testss_20test_shell_operators
FNDA:1,_RNvNtNtNtCsdeW3LDTW70x_18infraware_terminal5input8patterns5testss_27test_question_words_english
FNDA:1,_RNvNtNtNtCsdeW3LDTW70x_18infraware_terminal5input8patterns5testss_28test_command_syntax_patterns
FNDA:1,_RNvNtNtNtCsdeW3LDTW70x_18infraware_terminal5input8patterns5testss_30test_natural_language_patterns
FNDA:1,_RNCNvNtNtCsdeW3LDTW70x_18infraware_terminal5input8patterns8PATTERNS0B7_
FNDA:17,_RNvMNtNtCsdeW3LDTW70x_18infraware_terminal5input8patternsNtB2_16CompiledPatterns12has_articlesB6_
FNDA:10,_RNvMNtNtCsdeW3LDTW70x_18infraware_terminal5input8patternsNtB2_16CompiledPatterns18has_command_syntaxB6_
FNDA:10,_RNvMNtNtCsdeW3LDTW70x_18infraware_terminal5input8patternsNtB2_16CompiledPatterns19has_shell_operatorsB6_
FNDA:23,_RNvMNtNtCsdeW3LDTW70x_18infraware_terminal5input8patternsNtB2_16CompiledPatterns25starts_with_question_wordB6_
FNDA:23,_RNvMNtNtCsdeW3LDTW70x_18infraware_terminal5input8patternsNtB2_16CompiledPatterns31has_natural_language_indicatorsB6_
FNDA:23,_RNvMNtNtCsdeW3LDTW70x_18infraware_terminal5input8patternsNtB2_16CompiledPatterns3get
FNF:13
FNH:13
DA:36,4
DA:37,4
DA:38,4
DA:39,4
DA:40,4
DA:41,4
DA:42,4
DA:43,4
DA:44,4
DA:45,4
DA:46,4
DA:47,4
DA:48,4
DA:49,4
DA:50,4
DA:51,4
DA:52,4
DA:53,4
DA:54,4
DA:55,4
DA:56,4
DA:57,4
DA:58,4
DA:59,4
DA:60,4
DA:61,4
DA:62,4
DA:63,4
DA:64,4
DA:65,4
DA:66,4
DA:67,4
DA:68,4
DA:69,4
DA:70,4
DA:71,4
DA:72,4
DA:73,4
DA:74,4
DA:75,4
DA:76,4
DA:77,4
DA:78,4
DA:79,4
DA:80,4
DA:81,4
DA:82,4
DA:94,56
DA:95,56
DA:96,56
DA:101,20
DA:102,20
DA:103,20
DA:107,56
DA:108,56
DA:109,56
DA:113,20
DA:114,20
DA:115,20
DA:119,46
DA:120,46
DA:121,46
DA:125,34
DA:126,34
DA:127,34
DA:135,2
DA:136,2
DA:139,2
DA:140,2
DA:143,2
DA:144,2
DA:145,2
DA:148,2
DA:149,2
DA:152,2
DA:153,2
DA:154,2
DA:157,2
DA:158,2
DA:161,2
DA:162,2
DA:165,2
DA:166,2
DA:169,2
DA:170,2
DA:171,2
DA:174,2
DA:175,2
DA:178,2
DA:181,2
DA:182,2
DA:185,2
DA:186,2
DA:189,2
DA:190,2
DA:193,2
DA:194,2
DA:197,2
DA:198,2
DA:201,2
DA:202,2
DA:203,2
DA:204,2
DA:205,2
DA:206,2
DA:207,2
DA:210,2
DA:211,2
DA:212,2
DA:213,2
DA:214,2
DA:217,2
DA:218,2
DA:219,2
DA:222,2
DA:223,2
DA:226,2
DA:227,2
DA:228,2
DA:229,2
DA:230,2
DA:231,2
DA:234,2
DA:235,2
DA:236,2
DA:237,2
DA:240,2
DA:241,2
DA:244,2
DA:247,2
DA:250,2
DA:251,2
DA:254,2
DA:255,2
DA:256,2
DA:257,2
BRF:0
BRH:0
LF:136
LH:136
end_of_record
SF:/home/crist/infraware-terminal/terminal-app/src/input/shell_builtins.rs
FN:112,_RNvMNtNtCsgbM7bOyfJDi_18infraware_terminal5input14shell_builtinsNtB2_19ShellBuiltinHandler10is_builtin
FN:42,_RNvMNtNtCsgbM7bOyfJDi_18infraware_terminal5input14shell_builtinsNtB2_19ShellBuiltinHandler13with_builtins
FN:52,_RNvMNtNtCsgbM7bOyfJDi_18infraware_terminal5input14shell_builtinsNtB2_19ShellBuiltinHandler16default_builtins
FN:36,_RNvMNtNtCsgbM7bOyfJDi_18infraware_terminal5input14shell_builtinsNtB2_19ShellBuiltinHandler3new
FN:154,_RNvXs0_NtNtCsgbM7bOyfJDi_18infraware_terminal5input14shell_builtinsNtB5_19ShellBuiltinHandlerNtNtB7_7handler12InputHandler4name
FN:124,_RNvXs0_NtNtCsgbM7bOyfJDi_18infraware_terminal5input14shell_builtinsNtB5_19ShellBuiltinHandlerNtNtB7_7handler12InputHandler6handle
FN:118,_RNvXs_NtNtCsgbM7bOyfJDi_18infraware_terminal5input14shell_builtinsNtB4_19ShellBuiltinHandlerNtNtCs5GmCzIpY9Qj_4core7default7Default7default
FN:112,_RNvMNtNtCskvicDDTzzc8_18infraware_terminal5input14shell_builtinsNtB2_19ShellBuiltinHandler10is_builtin
FN:42,_RNvMNtNtCskvicDDTzzc8_18infraware_terminal5input14shell_builtinsNtB2_19ShellBuiltinHandler13with_builtins
FN:52,_RNvMNtNtCskvicDDTzzc8_18infraware_terminal5input14shell_builtinsNtB2_19ShellBuiltinHandler16default_builtins
FN:36,_RNvMNtNtCskvicDDTzzc8_18infraware_terminal5input14shell_builtinsNtB2_19ShellBuiltinHandler3new
FN:154,_RNvXs0_NtNtCskvicDDTzzc8_18infraware_terminal5input14shell_builtinsNtB5_19ShellBuiltinHandlerNtNtB7_7handler12InputHandler4name
FN:124,_RNvXs0_NtNtCskvicDDTzzc8_18infraware_terminal5input14shell_builtinsNtB5_19ShellBuiltinHandlerNtNtB7_7handler12InputHandler6handle
FN:118,_RNvXs_NtNtCskvicDDTzzc8_18infraware_terminal5input14shell_builtinsNtB4_19ShellBuiltinHandlerNtNtCs5GmCzIpY9Qj_4core7default7Default7default
FN:306,_RNvNtNtNtCs9VvCb0vlg4r_18infraware_terminal5input14shell_builtins5testss_16test_empty_input
FN:297,_RNvNtNtNtCs9VvCb0vlg4r_18infraware_terminal5input14shell_builtins5testss_16test_not_builtin
FN:314,_RNvNtNtNtCs9VvCb0vlg4r_18infraware_terminal5input14shell_builtins5testss_17test_handler_name
FN:334,_RNvNtNtNtCs9VvCb0vlg4r_18infraware_terminal5input14shell_builtins5testss_20test_custom_builtins
FN:320,_RNvNtNtNtCs9VvCb0vlg4r_18infraware_terminal5input14shell_builtins5testss_21test_is_builtin_check
FN:283,_RNvNtNtNtCs9VvCb0vlg4r_18infraware_terminal5input14shell_builtins5testss_21test_recognize_export
FN:268,_RNvNtNtNtCs9VvCb0vlg4r_18infraware_terminal5input14shell_builtins5testss_21test_recognize_source
FN:257,_RNvNtNtNtCs9VvCb0vlg4r_18infraware_terminal5input14shell_builtins5testss_25test_recognize_true_false
FN:164,_RNvNtNtNtCs9VvCb0vlg4r_18infraware_terminal5input14shell_builtins5testss_26test_recognize_dot_builtin
FN:242,_RNvNtNtNtCs9VvCb0vlg4r_18infraware_terminal5input14shell_builtins5testss_27test_recognize_test_command
FN:195,_RNvNtNtNtCs9VvCb0vlg4r_18infraware_terminal5input14shell_builtins5testss_28test_recognize_colon_builtin
FN:179,_RNvNtNtNtCs9VvCb0vlg4r_18infraware_terminal5input14shell_builtins5testss_28test_recognize_dot_with_file
FN:345,_RNvNtNtNtCs9VvCb0vlg4r_18infraware_terminal5input14shell_builtins5testss_29test_preserve_shell_operators
FN:226,_RNvNtNtNtCs9VvCb0vlg4r_18infraware_terminal5input14shell_builtins5testss_29test_recognize_double_bracket
FN:210,_RNvNtNtNtCs9VvCb0vlg4r_18infraware_terminal5input14shell_builtins5testss_29test_recognize_single_bracket
FN:118,_RNvXs_NtNtCs9VvCb0vlg4r_18infraware_terminal5input14shell_builtinsNtB4_19ShellBuiltinHandlerNtNtCs5GmCzIpY9Qj_4core7default7Default7default
FN:112,_RNvMNtNtCs9VvCb0vlg4r_18infraware_terminal5input14shell_builtinsNtB2_19ShellBuiltinHandler10is_builtin
FN:42,_RNvMNtNtCs9VvCb0vlg4r_18infraware_terminal5input14shell_builtinsNtB2_19ShellBuiltinHandler13with_builtins
FN:52,_RNvMNtNtCs9VvCb0vlg4r_18infraware_terminal5input14shell_builtinsNtB2_19ShellBuiltinHandler16default_builtins
FN:36,_RNvMNtNtCs9VvCb0vlg4r_18infraware_terminal5input14shell_builtinsNtB2_19ShellBuiltinHandler3new
FN:154,_RNvXs0_NtNtCs9VvCb0vlg4r_18infraware_terminal5input14shell_builtinsNtB5_19ShellBuiltinHandlerNtNtB7_7handler12InputHandler4name
FN:124,_RNvXs0_NtNtCs9VvCb0vlg4r_18infraware_terminal5input14shell_builtinsNtB5_19ShellBuiltinHandlerNtNtB7_7handler12InputHandler6handle
FN:112,_RNvMNtNtCsdeW3LDTW70x_18infraware_terminal5input14shell_builtinsNtB2_19ShellBuiltinHandler10is_builtin
FN:42,_RNvMNtNtCsdeW3LDTW70x_18infraware_terminal5input14shell_builtinsNtB2_19ShellBuiltinHandler13with_builtins
FN:52,_RNvMNtNtCsdeW3LDTW70x_18infraware_terminal5input14shell_builtinsNtB2_19ShellBuiltinHandler16default_builtins
FN:36,_RNvMNtNtCsdeW3LDTW70x_18infraware_terminal5input14shell_builtinsNtB2_19ShellBuiltinHandler3new
FN:154,_RNvXs0_NtNtCsdeW3LDTW70x_18infraware_terminal5input14shell_builtinsNtB5_19ShellBuiltinHandlerNtNtB7_7handler12InputHandler4name
FN:124,_RNvXs0_NtNtCsdeW3LDTW70x_18infraware_terminal5input14shell_builtinsNtB5_19ShellBuiltinHandlerNtNtB7_7handler12InputHandler6handle
FN:306,_RNvNtNtNtCsdeW3LDTW70x_18infraware_terminal5input14shell_builtins5testss_16test_empty_input
FN:297,_RNvNtNtNtCsdeW3LDTW70x_18infraware_terminal5input14shell_builtins5testss_16test_not_builtin
FN:314,_RNvNtNtNtCsdeW3LDTW70x_18infraware_terminal5input14shell_builtins5testss_17test_handler_name
FN:334,_RNvNtNtNtCsdeW3LDTW70x_18infraware_terminal5input14shell_builtins5testss_20test_custom_builtins
FN:320,_RNvNtNtNtCsdeW3LDTW70x_18infraware_terminal5input14shell_builtins5testss_21test_is_builtin_check
FN:283,_RNvNtNtNtCsdeW3LDTW70x_18infraware_terminal5input14shell_builtins5testss_21test_recognize_export
FN:268,_RNvNtNtNtCsdeW3LDTW70x_18infraware_terminal5input14shell_builtins5testss_21test_recognize_source
FN:257,_RNvNtNtNtCsdeW3LDTW70x_18infraware_terminal5input14shell_builtins5testss_25test_recognize_true_false
FN:164,_RNvNtNtNtCsdeW3LDTW70x_18infraware_terminal5input14shell_builtins5testss_26test_recognize_dot_builtin
FN:242,_RNvNtNtNtCsdeW3LDTW70x_18infraware_terminal5input14shell_builtins5testss_27test_recognize_test_command
FN:195,_RNvNtNtNtCsdeW3LDTW70x_18infraware_terminal5input14shell_builtins5testss_28test_recognize_colon_builtin
FN:179,_RNvNtNtNtCsdeW3LDTW70x_18infraware_terminal5input14shell_builtins5testss_28test_recognize_dot_with_file
FN:345,_RNvNtNtNtCsdeW3LDTW70x_18infraware_terminal5input14shell_builtins5testss_29test_preserve_shell_operators
FN:226,_RNvNtNtNtCsdeW3LDTW70x_18infraware_terminal5input14shell_builtins5testss_29test_recognize_double_bracket
FN:210,_RNvNtNtNtCsdeW3LDTW70x_18infraware_terminal5input14shell_builtins5testss_29test_recognize_single_bracket
FN:118,_RNvXs_NtNtCsdeW3LDTW70x_18infraware_terminal5input14shell_builtinsNtB4_19ShellBuiltinHandlerNtNtCs5GmCzIpY9Qj_4core7default7Default7default
FNDA:42,_RNvMNtNtCsgbM7bOyfJDi_18infraware_terminal5input14shell_builtinsNtB2_19ShellBuiltinHandler10is_builtin
FNDA:20,_RNvMNtNtCsgbM7bOyfJDi_18infraware_terminal5input14shell_builtinsNtB2_19ShellBuiltinHandler13with_builtins
FNDA:20,_RNvMNtNtCsgbM7bOyfJDi_18infraware_terminal5input14shell_builtinsNtB2_19ShellBuiltinHandler16default_builtins
FNDA:20,_RNvMNtNtCsgbM7bOyfJDi_18infraware_terminal5input14shell_builtinsNtB2_19ShellBuiltinHandler3new
FNDA:0,_RNvXs0_NtNtCsgbM7bOyfJDi_18infraware_terminal5input14shell_builtinsNtB5_19ShellBuiltinHandlerNtNtB7_7handler12InputHandler4name
FNDA:42,_RNvXs0_NtNtCsgbM7bOyfJDi_18infraware_terminal5input14shell_builtinsNtB5_19ShellBuiltinHandlerNtNtB7_7handler12InputHandler6handle
FNDA:0,_RNvXs_NtNtCsgbM7bOyfJDi_18infraware_terminal5input14shell_builtinsNtB4_19ShellBuiltinHandlerNtNtCs5GmCzIpY9Qj_4core7default7Default7default
FNDA:0,_RNvMNtNtCskvicDDTzzc8_18infraware_terminal5input14shell_builtinsNtB2_19ShellBuiltinHandler10is_builtin
FNDA:0,_RNvMNtNtCskvicDDTzzc8_18infraware_terminal5input14shell_builtinsNtB2_19ShellBuiltinHandler13with_builtins
FNDA:0,_RNvMNtNtCskvicDDTzzc8_18infraware_terminal5input14shell_builtinsNtB2_19ShellBuiltinHandler16default_builtins
FNDA:0,_RNvMNtNtCskvicDDTzzc8_18infraware_terminal5input14shell_builtinsNtB2_19ShellBuiltinHandler3new
FNDA:0,_RNvXs0_NtNtCskvicDDTzzc8_18infraware_terminal5input14shell_builtinsNtB5_19ShellBuiltinHandlerNtNtB7_7handler12InputHandler4name
FNDA:0,_RNvXs0_NtNtCskvicDDTzzc8_18infraware_terminal5input14shell_builtinsNtB5_19ShellBuiltinHandlerNtNtB7_7handler12InputHandler6handle
FNDA:0,_RNvXs_NtNtCskvicDDTzzc8_18infraware_terminal5input14shell_builtinsNtB4_19ShellBuiltinHandlerNtNtCs5GmCzIpY9Qj_4core7default7Default7default
FNDA:1,_RNvNtNtNtCs9VvCb0vlg4r_18infraware_terminal5input14shell_builtins5testss_16test_empty_input
FNDA:1,_RNvNtNtNtCs9VvCb0vlg4r_18infraware_terminal5input14shell_builtins5testss_16test_not_builtin
FNDA:1,_RNvNtNtNtCs9VvCb0vlg4r_18infraware_terminal5input14shell_builtins5testss_17test_handler_name
FNDA:1,_RNvNtNtNtCs9VvCb0vlg4r_18infraware_terminal5input14shell_builtins5testss_20test_custom_builtins
FNDA:1,_RNvNtNtNtCs9VvCb0vlg4r_18infraware_terminal5input14shell_builtins5testss_21test_is_builtin_check
FNDA:1,_RNvNtNtNtCs9VvCb0vlg4r_18infraware_terminal5input14shell_builtins5testss_21test_recognize_export
FNDA:1,_RNvNtNtNtCs9VvCb0vlg4r_18infraware_terminal5input14shell_builtins5testss_21test_recognize_source
FNDA:1,_RNvNtNtNtCs9VvCb0vlg4r_18infraware_terminal5input14shell_builtins5testss_25test_recognize_true_false
FNDA:1,_RNvNtNtNtCs9VvCb0vlg4r_18infraware_terminal5input14shell_builtins5testss_26test_recognize_dot_builtin
FNDA:1,_RNvNtNtNtCs9VvCb0vlg4r_18infraware_terminal5input14shell_builtins5testss_27test_recognize_test_command
FNDA:1,_RNvNtNtNtCs9VvCb0vlg4r_18infraware_terminal5input14shell_builtins5testss_28test_recognize_colon_builtin
FNDA:1,_RNvNtNtNtCs9VvCb0vlg4r_18infraware_terminal5input14shell_builtins5testss_28test_recognize_dot_with_file
FNDA:1,_RNvNtNtNtCs9VvCb0vlg4r_18infraware_terminal5input14shell_builtins5testss_29test_preserve_shell_operators
FNDA:1,_RNvNtNtNtCs9VvCb0vlg4r_18infraware_terminal5input14shell_builtins5testss_29test_recognize_double_bracket
FNDA:1,_RNvNtNtNtCs9VvCb0vlg4r_18infraware_terminal5input14shell_builtins5testss_29test_recognize_single_bracket
FNDA:0,_RNvXs_NtNtCs9VvCb0vlg4r_18infraware_terminal5input14shell_builtinsNtB4_19ShellBuiltinHandlerNtNtCs5GmCzIpY9Qj_4core7default7Default7default
FNDA:39,_RNvMNtNtCs9VvCb0vlg4r_18infraware_terminal5input14shell_builtinsNtB2_19ShellBuiltinHandler10is_builtin
FNDA:20,_RNvMNtNtCs9VvCb0vlg4r_18infraware_terminal5input14shell_builtinsNtB2_19ShellBuiltinHandler13with_builtins
FNDA:19,_RNvMNtNtCs9VvCb0vlg4r_18infraware_terminal5input14shell_builtinsNtB2_19ShellBuiltinHandler16default_builtins
FNDA:19,_RNvMNtNtCs9VvCb0vlg4r_18infraware_terminal5input14shell_builtinsNtB2_19ShellBuiltinHandler3new
FNDA:1,_RNvXs0_NtNtCs9VvCb0vlg4r_18infraware_terminal5input14shell_builtinsNtB5_19ShellBuiltinHandlerNtNtB7_7handler12InputHandler4name
FNDA:32,_RNvXs0_NtNtCs9VvCb0vlg4r_18infraware_terminal5input14shell_builtinsNtB5_19ShellBuiltinHandlerNtNtB7_7handler12InputHandler6handle
FNDA:39,_RNvMNtNtCsdeW3LDTW70x_18infraware_terminal5input14shell_builtinsNtB2_19ShellBuiltinHandler10is_builtin
FNDA:20,_RNvMNtNtCsdeW3LDTW70x_18infraware_terminal5input14shell_builtinsNtB2_19ShellBuiltinHandler13with_builtins
FNDA:19,_RNvMNtNtCsdeW3LDTW70x_18infraware_terminal5input14shell_builtinsNtB2_19ShellBuiltinHandler16default_builtins
FNDA:19,_RNvMNtNtCsdeW3LDTW70x_18infraware_terminal5input14shell_builtinsNtB2_19ShellBuiltinHandler3new
FNDA:1,_RNvXs0_NtNtCsdeW3LDTW70x_18infraware_terminal5input14shell_builtinsNtB5_19ShellBuiltinHandlerNtNtB7_7handler12InputHandler4name
FNDA:32,_RNvXs0_NtNtCsdeW3LDTW70x_18infraware_terminal5input14shell_builtinsNtB5_19ShellBuiltinHandlerNtNtB7_7handler12InputHandler6handle
FNDA:1,_RNvNtNtNtCsdeW3LDTW70x_18infraware_terminal5input14shell_builtins5testss_16test_empty_input
FNDA:1,_RNvNtNtNtCsdeW3LDTW70x_18infraware_terminal5input14shell_builtins5testss_16test_not_builtin
FNDA:1,_RNvNtNtNtCsdeW3LDTW70x_18infraware_terminal5input14shell_builtins5testss_17test_handler_name
FNDA:1,_RNvNtNtNtCsdeW3LDTW70x_18infraware_terminal5input14shell_builtins5testss_20test_custom_builtins
FNDA:1,_RNvNtNtNtCsdeW3LDTW70x_18infraware_terminal5input14shell_builtins5testss_21test_is_builtin_check
FNDA:1,_RNvNtNtNtCsdeW3LDTW70x_18infraware_terminal5input14shell_builtins5testss_21test_recognize_export
FNDA:1,_RNvNtNtNtCsdeW3LDTW70x_18infraware_terminal5input14shell_builtins5testss_21test_recognize_source
FNDA:1,_RNvNtNtNtCsdeW3LDTW70x_18infraware_terminal5input14shell_builtins5testss_25test_recognize_true_false
FNDA:1,_RNvNtNtNtCsdeW3LDTW70x_18infraware_terminal5input14shell_builtins5testss_26test_recognize_dot_builtin
FNDA:1,_RNvNtNtNtCsdeW3LDTW70x_18infraware_terminal5input14shell_builtins5testss_27test_recognize_test_command
FNDA:1,_RNvNtNtNtCsdeW3LDTW70x_18infraware_terminal5input14shell_builtins5testss_28test_recognize_colon_builtin
FNDA:1,_RNvNtNtNtCsdeW3LDTW70x_18infraware_terminal5input14shell_builtins5testss_28test_recognize_dot_with_file
FNDA:1,_RNvNtNtNtCsdeW3LDTW70x_18infraware_terminal5input14shell_builtins5testss_29test_preserve_shell_operators
FNDA:1,_RNvNtNtNtCsdeW3LDTW70x_18infraware_terminal5input14shell_builtins5testss_29test_recognize_double_bracket
FNDA:1,_RNvNtNtNtCsdeW3LDTW70x_18infraware_terminal5input14shell_builtins5testss_29test_recognize_single_bracket
FNDA:0,_RNvXs_NtNtCsdeW3LDTW70x_18infraware_terminal5input14shell_builtinsNtB4_19ShellBuiltinHandlerNtNtCs5GmCzIpY9Qj_4core7default7Default7default
FNF:22
FNH:21
DA:36,58
DA:37,58
DA:38,58
DA:42,60
DA:43,60
DA:44,60
DA:52,58
DA:53,58
DA:55,58
DA:56,58
DA:58,58
DA:59,58
DA:60,58
DA:62,58
DA:63,58
DA:64,58
DA:66,58
DA:67,58
DA:68,58
DA:69,58
DA:70,58
DA:71,58
DA:72,58
DA:74,58
DA:75,58
DA:76,58
DA:77,58
DA:79,58
DA:80,58
DA:81,58
DA:83,58
DA:84,58
DA:86,58
DA:87,58
DA:88,58
DA:90,58
DA:91,58
DA:92,58
DA:93,58
DA:95,58
DA:96,58
DA:97,58
DA:99,58
DA:100,58
DA:101,58
DA:103,58
DA:104,58
DA:105,58
DA:106,58
DA:107,58
DA:109,58
DA:112,120
DA:113,120
DA:114,120
DA:118,0
DA:119,0
DA:120,0
DA:124,106
DA:126,106
DA:129,104
DA:131,45
DA:132,45
DA:133,45
DA:134,45
DA:136,45
DA:137,42
DA:138,40
DA:139,40
DA:140,40
DA:142,5
DA:144,40
DA:147,0
DA:150,59
DA:152,106
DA:154,2
DA:155,2
DA:156,2
DA:164,2
DA:165,2
DA:168,2
DA:169,2
DA:170,2
DA:171,2
DA:172,2
DA:174,0
DA:176,2
DA:179,2
DA:180,2
DA:183,2
DA:184,2
DA:185,2
DA:186,2
DA:187,2
DA:188,2
DA:190,0
DA:192,2
DA:195,2
DA:196,2
DA:199,2
DA:200,2
DA:201,2
DA:202,2
DA:203,2
DA:205,0
DA:207,2
DA:210,2
DA:211,2
DA:214,2
DA:215,2
DA:216,2
DA:217,2
DA:218,2
DA:219,2
DA:221,0
DA:223,2
DA:226,2
DA:227,2
DA:230,2
DA:231,2
DA:232,2
DA:233,2
DA:234,2
DA:235,2
DA:237,0
DA:239,2
DA:242,2
DA:243,2
DA:245,2
DA:246,2
DA:247,2
DA:248,2
DA:249,2
DA:250,2
DA:252,0
DA:254,2
DA:257,2
DA:258,2
DA:260,2
DA:261,2
DA:263,2
DA:264,2
DA:265,2
DA:268,2
DA:269,2
DA:271,2
DA:272,2
DA:273,2
DA:274,2
DA:275,2
DA:276,2
DA:278,0
DA:280,2
DA:283,2
DA:284,2
DA:286,2
DA:287,2
DA:288,2
DA:289,2
DA:290,2
DA:292,0
DA:294,2
DA:297,2
DA:298,2
DA:301,2
DA:302,2
DA:303,2
DA:306,2
DA:307,2
DA:309,2
DA:310,2
DA:311,2
DA:314,2
DA:315,2
DA:316,2
DA:317,2
DA:320,2
DA:321,2
DA:323,2
DA:324,2
DA:325,2
DA:326,2
DA:327,2
DA:328,2
DA:329,2
DA:330,2
DA:331,2
DA:334,2
DA:335,2
DA:337,2
DA:338,2
DA:340,2
DA:341,2
DA:342,2
DA:345,2
DA:346,2
DA:349,2
DA:350,2
DA:351,2
DA:352,2
DA:353,2
DA:354,2
DA:356,0
DA:358,2
BRF:0
BRH:0
LF:203
LH:190
end_of_record
SF:/home/crist/infraware-terminal/terminal-app/src/input/typo_detection.rs
FN:61,_RNCNvMNtNtCsgbM7bOyfJDi_18infraware_terminal5input14typo_detectionNtB4_20TypoDetectionHandler18find_closest_match0B8_
FN:62,_RNCNvMNtNtCsgbM7bOyfJDi_18infraware_terminal5input14typo_detectionNtB4_20TypoDetectionHandler18find_closest_matchs_0B8_
FN:98,_RNCNvMNtNtCsgbM7bOyfJDi_18infraware_terminal5input14typo_detectionNtB4_20TypoDetectionHandler18is_unknown_command0B8_
FN:46,_RNvMNtNtCsgbM7bOyfJDi_18infraware_terminal5input14typo_detectionNtB2_20TypoDetectionHandler13with_defaults
FN:58,_RNvMNtNtCsgbM7bOyfJDi_18infraware_terminal5input14typo_detectionNtB2_20TypoDetectionHandler18find_closest_match
FN:97,_RNvMNtNtCsgbM7bOyfJDi_18infraware_terminal5input14typo_detectionNtB2_20TypoDetectionHandler18is_unknown_command
FN:67,_RNvMNtNtCsgbM7bOyfJDi_18infraware_terminal5input14typo_detectionNtB2_20TypoDetectionHandler18looks_like_command
FN:38,_RNvMNtNtCsgbM7bOyfJDi_18infraware_terminal5input14typo_detectionNtB2_20TypoDetectionHandler3new
FN:141,_RNvXs0_NtNtCsgbM7bOyfJDi_18infraware_terminal5input14typo_detectionNtB5_20TypoDetectionHandlerNtNtCs5GmCzIpY9Qj_4core7default7Default7default
FN:135,_RNvXs_NtNtCsgbM7bOyfJDi_18infraware_terminal5input14typo_detectionNtB4_20TypoDetectionHandlerNtNtB6_7handler12InputHandler4name
FN:104,_RNvXs_NtNtCsgbM7bOyfJDi_18infraware_terminal5input14typo_detectionNtB4_20TypoDetectionHandlerNtNtB6_7handler12InputHandler6handle
FN:61,_RNCNvMNtNtCskvicDDTzzc8_18infraware_terminal5input14typo_detectionNtB4_20TypoDetectionHandler18find_closest_match0B8_
FN:62,_RNCNvMNtNtCskvicDDTzzc8_18infraware_terminal5input14typo_detectionNtB4_20TypoDetectionHandler18find_closest_matchs_0B8_
FN:98,_RNCNvMNtNtCskvicDDTzzc8_18infraware_terminal5input14typo_detectionNtB4_20TypoDetectionHandler18is_unknown_command0B8_
FN:141,_RNvXs0_NtNtCskvicDDTzzc8_18infraware_terminal5input14typo_detectionNtB5_20TypoDetectionHandlerNtNtCs5GmCzIpY9Qj_4core7default7Default7default
FN:46,_RNvMNtNtCskvicDDTzzc8_18infraware_terminal5input14typo_detectionNtB2_20TypoDetectionHandler13with_defaults
FN:58,_RNvMNtNtCskvicDDTzzc8_18infraware_terminal5input14typo_detectionNtB2_20TypoDetectionHandler18find_closest_match
FN:97,_RNvMNtNtCskvicDDTzzc8_18infraware_terminal5input14typo_detectionNtB2_20TypoDetectionHandler18is_unknown_command
FN:67,_RNvMNtNtCskvicDDTzzc8_18infraware_terminal5input14typo_detectionNtB2_20TypoDetectionHandler18looks_like_command
FN:38,_RNvMNtNtCskvicDDTzzc8_18infraware_terminal5input14typo_detectionNtB2_20TypoDetectionHandler3new
FN:135,_RNvXs_NtNtCskvicDDTzzc8_18infraware_terminal5input14typo_detectionNtB4_20TypoDetectionHandlerNtNtB6_7handler12InputHandler4name
FN:104,_RNvXs_NtNtCskvicDDTzzc8_18infraware_terminal5input14typo_detectionNtB4_20TypoDetectionHandlerNtNtB6_7handler12InputHandler6handle
FN:141,_RNvXs0_NtNtCs9VvCb0vlg4r_18infraware_terminal5input14typo_detectionNtB5_20TypoDetectionHandlerNtNtCs5GmCzIpY9Qj_4core7default7Default7default
FN:336,_RNvNtNtNtCs9VvCb0vlg4r_18infraware_terminal5input14typo_detection5testss_15test_with_flags
FN:307,_RNvNtNtNtCs9VvCb0vlg4r_18infraware_terminal5input14typo_detection5testss_16test_empty_input
FN:211,_RNvNtNtNtCs9VvCb0vlg4r_18infraware_terminal5input14typo_detection5testss_16test_handle_typo
FN:182,_RNvNtNtNtCs9VvCb0vlg4r_18infraware_terminal5input14typo_detection5testss_17test_common_typos
FN:297,_RNvNtNtNtCs9VvCb0vlg4r_18infraware_terminal5input14typo_detection5testss_21test_case_sensitivity
FN:315,_RNvNtNtNtCs9VvCb0vlg4r_18infraware_terminal5input14typo_detection5testss_21test_single_word_typo
FN:266,_RNvNtNtNtCs9VvCb0vlg4r_18infraware_terminal5input14typo_detection5testss_23test_distance_threshold
FN:152,_RNvNtNtNtCs9VvCb0vlg4r_18infraware_terminal5input14typo_detection5testss_23test_find_closest_match
FN:251,_RNvNtNtNtCs9VvCb0vlg4r_18infraware_terminal5input14typo_detection5testss_23test_looks_like_command
FN:230,_RNvNtNtNtCs9VvCb0vlg4r_18infraware_terminal5input14typo_detection5testss_27test_handle_correct_command
FN:281,_RNvNtNtNtCs9VvCb0vlg4r_18infraware_terminal5input14typo_detection5testss_27test_multiple_close_matches
FN:239,_RNvNtNtNtCs9VvCb0vlg4r_18infraware_terminal5input14typo_detection5testss_28test_handle_natural_language
FN:61,_RNCNvMNtNtCs9VvCb0vlg4r_18infraware_terminal5input14typo_detectionNtB4_20TypoDetectionHandler18find_closest_match0B8_
FN:62,_RNCNvMNtNtCs9VvCb0vlg4r_18infraware_terminal5input14typo_detectionNtB4_20TypoDetectionHandler18find_closest_matchs_0B8_
FN:98,_RNCNvMNtNtCs9VvCb0vlg4r_18infraware_terminal5input14typo_detectionNtB4_20TypoDetectionHandler18is_unknown_command0B8_
FN:46,_RNvMNtNtCs9VvCb0vlg4r_18infraware_terminal5input14typo_detectionNtB2_20TypoDetectionHandler13with_defaults
FN:58,_RNvMNtNtCs9VvCb0vlg4r_18infraware_terminal5input14typo_detectionNtB2_20TypoDetectionHandler18find_closest_match
FN:97,_RNvMNtNtCs9VvCb0vlg4r_18infraware_terminal5input14typo_detectionNtB2_20TypoDetectionHandler18is_unknown_command
FN:67,_RNvMNtNtCs9VvCb0vlg4r_18infraware_terminal5input14typo_detectionNtB2_20TypoDetectionHandler18looks_like_command
FN:38,_RNvMNtNtCs9VvCb0vlg4r_18infraware_terminal5input14typo_detectionNtB2_20TypoDetectionHandler3new
FN:135,_RNvXs_NtNtCs9VvCb0vlg4r_18infraware_terminal5input14typo_detectionNtB4_20TypoDetectionHandlerNtNtB6_7handler12InputHandler4name
FN:104,_RNvXs_NtNtCs9VvCb0vlg4r_18infraware_terminal5input14typo_detectionNtB4_20TypoDetectionHandlerNtNtB6_7handler12InputHandler6handle
FN:61,_RNCNvMNtNtCsdeW3LDTW70x_18infraware_terminal5input14typo_detectionNtB4_20TypoDetectionHandler18find_closest_match0B8_
FN:62,_RNCNvMNtNtCsdeW3LDTW70x_18infraware_terminal5input14typo_detectionNtB4_20TypoDetectionHandler18find_closest_matchs_0B8_
FN:98,_RNCNvMNtNtCsdeW3LDTW70x_18infraware_terminal5input14typo_detectionNtB4_20TypoDetectionHandler18is_unknown_command0B8_
FN:336,_RNvNtNtNtCsdeW3LDTW70x_18infraware_terminal5input14typo_detection5testss_15test_with_flags
FN:307,_RNvNtNtNtCsdeW3LDTW70x_18infraware_terminal5input14typo_detection5testss_16test_empty_input
FN:211,_RNvNtNtNtCsdeW3LDTW70x_18infraware_terminal5input14typo_detection5testss_16test_handle_typo
FN:182,_RNvNtNtNtCsdeW3LDTW70x_18infraware_terminal5input14typo_detection5testss_17test_common_typos
FN:297,_RNvNtNtNtCsdeW3LDTW70x_18infraware_terminal5input14typo_detection5testss_21test_case_sensitivity
FN:315,_RNvNtNtNtCsdeW3LDTW70x_18infraware_terminal5input14typo_detection5testss_21test_single_word_typo
FN:266,_RNvNtNtNtCsdeW3LDTW70x_18infraware_terminal5input14typo_detection5testss_23test_distance_threshold
FN:152,_RNvNtNtNtCsdeW3LDTW70x_18infraware_terminal5input14typo_detection5testss_23test_find_closest_match
FN:251,_RNvNtNtNtCsdeW3LDTW70x_18infraware_terminal5input14typo_detection5testss_23test_looks_like_command
FN:230,_RNvNtNtNtCsdeW3LDTW70x_18infraware_terminal5input14typo_detection5testss_27test_handle_correct_command
FN:281,_RNvNtNtNtCsdeW3LDTW70x_18infraware_terminal5input14typo_detection5testss_27test_multiple_close_matches
FN:239,_RNvNtNtNtCsdeW3LDTW70x_18infraware_terminal5input14typo_detection5testss_28test_handle_natural_language
FN:46,_RNvMNtNtCsdeW3LDTW70x_18infraware_terminal5input14typo_detectionNtB2_20TypoDetectionHandler13with_defaults
FN:58,_RNvMNtNtCsdeW3LDTW70x_18infraware_terminal5input14typo_detectionNtB2_20TypoDetectionHandler18find_closest_match
FN:97,_RNvMNtNtCsdeW3LDTW70x_18infraware_terminal5input14typo_detectionNtB2_20TypoDetectionHandler18is_unknown_command
FN:67,_RNvMNtNtCsdeW3LDTW70x_18infraware_terminal5input14typo_detectionNtB2_20TypoDetectionHandler18looks_like_command
FN:38,_RNvMNtNtCsdeW3LDTW70x_18infraware_terminal5input14typo_detectionNtB2_20TypoDetectionHandler3new
FN:135,_RNvXs_NtNtCsdeW3LDTW70x_18infraware_terminal5input14typo_detectionNtB4_20TypoDetectionHandlerNtNtB6_7handler12InputHandler4name
FN:104,_RNvXs_NtNtCsdeW3LDTW70x_18infraware_terminal5input14typo_detectionNtB4_20TypoDetectionHandlerNtNtB6_7handler12InputHandler6handle
FN:141,_RNvXs0_NtNtCsdeW3LDTW70x_18infraware_terminal5input14typo_detectionNtB5_20TypoDetectionHandlerNtNtCs5GmCzIpY9Qj_4core7default7Default7default
FNDA:190,_RNCNvMNtNtCsgbM7bOyfJDi_18infraware_terminal5input14typo_detectionNtB4_20TypoDetectionHandler18find_closest_match0B8_
FNDA:190,_RNCNvMNtNtCsgbM7bOyfJDi_18infraware_terminal5input14typo_detectionNtB4_20TypoDetectionHandler18find_closest_matchs_0B8_
FNDA:190,_RNCNvMNtNtCsgbM7bOyfJDi_18infraware_terminal5input14typo_detectionNtB4_20TypoDetectionHandler18is_unknown_command0B8_
FNDA:20,_RNvMNtNtCsgbM7bOyfJDi_18infraware_terminal5input14typo_detectionNtB2_20TypoDetectionHandler13with_defaults
FNDA:2,_RNvMNtNtCsgbM7bOyfJDi_18infraware_terminal5input14typo_detectionNtB2_20TypoDetectionHandler18find_closest_match
FNDA:2,_RNvMNtNtCsgbM7bOyfJDi_18infraware_terminal5input14typo_detectionNtB2_20TypoDetectionHandler18is_unknown_command
FNDA:10,_RNvMNtNtCsgbM7bOyfJDi_18infraware_terminal5input14typo_detectionNtB2_20TypoDetectionHandler18looks_like_command
FNDA:20,_RNvMNtNtCsgbM7bOyfJDi_18infraware_terminal5input14typo_detectionNtB2_20TypoDetectionHandler3new
FNDA:0,_RNvXs0_NtNtCsgbM7bOyfJDi_18infraware_terminal5input14typo_detectionNtB5_20TypoDetectionHandlerNtNtCs5GmCzIpY9Qj_4core7default7Default7default
FNDA:0,_RNvXs_NtNtCsgbM7bOyfJDi_18infraware_terminal5input14typo_detectionNtB4_20TypoDetectionHandlerNtNtB6_7handler12InputHandler4name
FNDA:10,_RNvXs_NtNtCsgbM7bOyfJDi_18infraware_terminal5input14typo_detectionNtB4_20TypoDetectionHandlerNtNtB6_7handler12InputHandler6handle
FNDA:0,_RNCNvMNtNtCskvicDDTzzc8_18infraware_terminal5input14typo_detectionNtB4_20TypoDetectionHandler18find_closest_match0B8_
FNDA:0,_RNCNvMNtNtCskvicDDTzzc8_18infraware_terminal5input14typo_detectionNtB4_20TypoDetectionHandler18find_closest_matchs_0B8_
FNDA:0,_RNCNvMNtNtCskvicDDTzzc8_18infraware_terminal5input14typo_detectionNtB4_20TypoDetectionHandler18is_unknown_command0B8_
FNDA:0,_RNvXs0_NtNtCskvicDDTzzc8_18infraware_terminal5input14typo_detectionNtB5_20TypoDetectionHandlerNtNtCs5GmCzIpY9Qj_4core7default7Default7default
FNDA:0,_RNvMNtNtCskvicDDTzzc8_18infraware_terminal5input14typo_detectionNtB2_20TypoDetectionHandler13with_defaults
FNDA:0,_RNvMNtNtCskvicDDTzzc8_18infraware_terminal5input14typo_detectionNtB2_20TypoDetectionHandler18find_closest_match
FNDA:0,_RNvMNtNtCskvicDDTzzc8_18infraware_terminal5input14typo_detectionNtB2_20TypoDetectionHandler18is_unknown_command
FNDA:0,_RNvMNtNtCskvicDDTzzc8_18infraware_terminal5input14typo_detectionNtB2_20TypoDetectionHandler18looks_like_command
FNDA:0,_RNvMNtNtCskvicDDTzzc8_18infraware_terminal5input14typo_detectionNtB2_20TypoDetectionHandler3new
FNDA:0,_RNvXs_NtNtCskvicDDTzzc8_18infraware_terminal5input14typo_detectionNtB4_20TypoDetectionHandlerNtNtB6_7handler12InputHandler4name
FNDA:0,_RNvXs_NtNtCskvicDDTzzc8_18infraware_terminal5input14typo_detectionNtB4_20TypoDetectionHandlerNtNtB6_7handler12InputHandler6handle
FNDA:0,_RNvXs0_NtNtCs9VvCb0vlg4r_18infraware_terminal5input14typo_detectionNtB5_20TypoDetectionHandlerNtNtCs5GmCzIpY9Qj_4core7default7Default7default
FNDA:1,_RNvNtNtNtCs9VvCb0vlg4r_18infraware_terminal5input14typo_detection5testss_15test_with_flags
FNDA:1,_RNvNtNtNtCs9VvCb0vlg4r_18infraware_terminal5input14typo_detection5testss_16test_empty_input
FNDA:1,_RNvNtNtNtCs9VvCb0vlg4r_18infraware_terminal5input14typo_detection5testss_16test_handle_typo
FNDA:1,_RNvNtNtNtCs9VvCb0vlg4r_18infraware_terminal5input14typo_detection5testss_17test_common_typos
FNDA:1,_RNvNtNtNtCs9VvCb0vlg4r_18infraware_terminal5input14typo_detection5testss_21test_case_sensitivity
FNDA:1,_RNvNtNtNtCs9VvCb0vlg4r_18infraware_terminal5input14typo_detection5testss_21test_single_word_typo
FNDA:1,_RNvNtNtNtCs9VvCb0vlg4r_18infraware_terminal5input14typo_detection5testss_23test_distance_threshold
FNDA:1,_RNvNtNtNtCs9VvCb0vlg4r_18infraware_terminal5input14typo_detection5testss_23test_find_closest_match
FNDA:1,_RNvNtNtNtCs9VvCb0vlg4r_18infraware_terminal5input14typo_detection5testss_23test_looks_like_command
FNDA:1,_RNvNtNtNtCs9VvCb0vlg4r_18infraware_terminal5input14typo_detection5testss_27test_handle_correct_command
FNDA:1,_RNvNtNtNtCs9VvCb0vlg4r_18infraware_terminal5input14typo_detection5testss_27test_multiple_close_matches
FNDA:1,_RNvNtNtNtCs9VvCb0vlg4r_18infraware_terminal5input14typo_detection5testss_28test_handle_natural_language
FNDA:1051,_RNCNvMNtNtCs9VvCb0vlg4r_18infraware_terminal5input14typo_detectionNtB4_20TypoDetectionHandler18find_closest_match0B8_
FNDA:1051,_RNCNvMNtNtCs9VvCb0vlg4r_18infraware_terminal5input14typo_detectionNtB4_20TypoDetectionHandler18find_closest_matchs_0B8_
FNDA:440,_RNCNvMNtNtCs9VvCb0vlg4r_18infraware_terminal5input14typo_detectionNtB4_20TypoDetectionHandler18is_unknown_command0B8_
FNDA:15,_RNvMNtNtCs9VvCb0vlg4r_18infraware_terminal5input14typo_detectionNtB2_20TypoDetectionHandler13with_defaults
FNDA:15,_RNvMNtNtCs9VvCb0vlg4r_18infraware_terminal5input14typo_detectionNtB2_20TypoDetectionHandler18find_closest_match
FNDA:5,_RNvMNtNtCs9VvCb0vlg4r_18infraware_terminal5input14typo_detectionNtB2_20TypoDetectionHandler18is_unknown_command
FNDA:24,_RNvMNtNtCs9VvCb0vlg4r_18infraware_terminal5input14typo_detectionNtB2_20TypoDetectionHandler18looks_like_command
FNDA:19,_RNvMNtNtCs9VvCb0vlg4r_18infraware_terminal5input14typo_detectionNtB2_20TypoDetectionHandler3new
FNDA:0,_RNvXs_NtNtCs9VvCb0vlg4r_18infraware_terminal5input14typo_detectionNtB4_20TypoDetectionHandlerNtNtB6_7handler12InputHandler4name
FNDA:18,_RNvXs_NtNtCs9VvCb0vlg4r_18infraware_terminal5input14typo_detectionNtB4_20TypoDetectionHandlerNtNtB6_7handler12InputHandler6handle
FNDA:1051,_RNCNvMNtNtCsdeW3LDTW70x_18infraware_terminal5input14typo_detectionNtB4_20TypoDetectionHandler18find_closest_match0B8_
FNDA:1051,_RNCNvMNtNtCsdeW3LDTW70x_18infraware_terminal5input14typo_detectionNtB4_20TypoDetectionHandler18find_closest_matchs_0B8_
FNDA:440,_RNCNvMNtNtCsdeW3LDTW70x_18infraware_terminal5input14typo_detectionNtB4_20TypoDetectionHandler18is_unknown_command0B8_
FNDA:1,_RNvNtNtNtCsdeW3LDTW70x_18infraware_terminal5input14typo_detection5testss_15test_with_flags
FNDA:1,_RNvNtNtNtCsdeW3LDTW70x_18infraware_terminal5input14typo_detection5testss_16test_empty_input
FNDA:1,_RNvNtNtNtCsdeW3LDTW70x_18infraware_terminal5input14typo_detection5testss_16test_handle_typo
FNDA:1,_RNvNtNtNtCsdeW3LDTW70x_18infraware_terminal5input14typo_detection5testss_17test_common_typos
FNDA:1,_RNvNtNtNtCsdeW3LDTW70x_18infraware_terminal5input14typo_detection5testss_21test_case_sensitivity
FNDA:1,_RNvNtNtNtCsdeW3LDTW70x_18infraware_terminal5input14typo_detection5testss_21test_single_word_typo
FNDA:1,_RNvNtNtNtCsdeW3LDTW70x_18infraware_terminal5input14typo_detection5testss_23test_distance_threshold
FNDA:1,_RNvNtNtNtCsdeW3LDTW70x_18infraware_terminal5input14typo_detection5testss_23test_find_closest_match
FNDA:1,_RNvNtNtNtCsdeW3LDTW70x_18infraware_terminal5input14typo_detection5testss_23test_looks_like_command
FNDA:1,_RNvNtNtNtCsdeW3LDTW70x_18infraware_terminal5input14typo_detection5testss_27test_handle_correct_command
FNDA:1,_RNvNtNtNtCsdeW3LDTW70x_18infraware_terminal5input14typo_detection5testss_27test_multiple_close_matches
FNDA:1,_RNvNtNtNtCsdeW3LDTW70x_18infraware_terminal5input14typo_detection5testss_28test_handle_natural_language
FNDA:15,_RNvMNtNtCsdeW3LDTW70x_18infraware_terminal5input14typo_detectionNtB2_20TypoDetectionHandler13with_defaults
FNDA:15,_RNvMNtNtCsdeW3LDTW70x_18infraware_terminal5input14typo_detectionNtB2_20TypoDetectionHandler18find_closest_match
FNDA:5,_RNvMNtNtCsdeW3LDTW70x_18infraware_terminal5input14typo_detectionNtB2_20TypoDetectionHandler18is_unknown_command
FNDA:24,_RNvMNtNtCsdeW3LDTW70x_18infraware_terminal5input14typo_detectionNtB2_20TypoDetectionHandler18looks_like_command
FNDA:19,_RNvMNtNtCsdeW3LDTW70x_18infraware_terminal5input14typo_detectionNtB2_20TypoDetectionHandler3new
FNDA:0,_RNvXs_NtNtCsdeW3LDTW70x_18infraware_terminal5input14typo_detectionNtB4_20TypoDetectionHandlerNtNtB6_7handler12InputHandler4name
FNDA:18,_RNvXs_NtNtCsdeW3LDTW70x_18infraware_terminal5input14typo_detectionNtB4_20TypoDetectionHandlerNtNtB6_7handler12InputHandler6handle
FNDA:0,_RNvXs0_NtNtCsdeW3LDTW70x_18infraware_terminal5input14typo_detectionNtB5_20TypoDetectionHandlerNtNtCs5GmCzIpY9Qj_4core7default7Default7default
FNF:23
FNH:21
DA:38,58
DA:39,58
DA:40,58
DA:41,58
DA:42,58
DA:43,58
DA:46,50
DA:47,50
DA:48,50
DA:58,32
DA:59,32
DA:60,32
DA:61,2292
DA:62,2292
DA:63,32
DA:64,32
DA:67,58
DA:68,58
DA:71,58
DA:72,7
DA:73,51
DA:76,51
DA:77,21
DA:78,30
DA:80,30
DA:83,30
DA:84,10
DA:85,20
DA:88,20
DA:89,14
DA:90,6
DA:93,6
DA:94,58
DA:97,12
DA:98,1070
DA:99,12
DA:104,46
DA:105,46
DA:108,46
DA:109,32
DA:110,14
DA:113,14
DA:116,12
DA:118,2
DA:119,10
DA:122,10
DA:124,6
DA:125,6
DA:126,6
DA:127,6
DA:128,6
DA:129,4
DA:132,4
DA:133,46
DA:135,0
DA:136,0
DA:137,0
DA:141,0
DA:142,0
DA:143,0
DA:152,2
DA:153,2
DA:156,2
DA:157,2
DA:158,2
DA:159,2
DA:160,2
DA:163,2
DA:164,2
DA:165,2
DA:166,2
DA:167,2
DA:170,2
DA:171,2
DA:172,2
DA:173,2
DA:177,2
DA:178,2
DA:179,2
DA:182,2
DA:183,2
DA:186,2
DA:188,2
DA:189,2
DA:192,8
DA:193,6
DA:194,6
DA:195,6
DA:196,0
DA:199,6
DA:200,6
DA:201,0
DA:208,2
DA:211,2
DA:212,2
DA:215,2
DA:216,2
DA:219,2
DA:220,2
DA:222,2
DA:224,2
DA:225,2
DA:226,0
DA:227,2
DA:230,2
DA:231,2
DA:234,2
DA:235,2
DA:236,2
DA:239,2
DA:240,2
DA:243,2
DA:244,2
DA:246,2
DA:247,2
DA:248,2
DA:251,2
DA:252,2
DA:255,2
DA:256,2
DA:257,2
DA:260,2
DA:261,2
DA:262,2
DA:263,2
DA:266,2
DA:267,2
DA:270,2
DA:271,2
DA:274,2
DA:275,2
DA:277,2
DA:278,2
DA:281,2
DA:283,2
DA:284,2
DA:289,2
DA:290,2
DA:291,2
DA:292,2
DA:293,2
DA:294,2
DA:297,2
DA:298,2
DA:301,2
DA:303,2
DA:304,2
DA:307,2
DA:308,2
DA:310,2
DA:311,2
DA:312,2
DA:315,2
DA:316,2
DA:318,2
DA:319,2
DA:322,2
DA:323,2
DA:325,2
DA:329,2
DA:331,2
DA:332,0
DA:333,2
DA:336,2
DA:337,2
DA:340,2
DA:341,2
DA:343,2
DA:344,2
DA:345,0
DA:346,2
BRF:0
BRH:0
LF:174
LH:163
end_of_record
SF:/home/crist/infraware-terminal/terminal-app/src/llm/client.rs
FN:126,_RNvMs0_NtNtCsgbM7bOyfJDi_18infraware_terminal3llm6clientNtB5_13MockLLMClient3new
FN:81,_RNvMs_NtNtCsgbM7bOyfJDi_18infraware_terminal3llm6clientNtB4_13HttpLLMClient12with_timeout
FN:69,_RNvMs_NtNtCsgbM7bOyfJDi_18infraware_terminal3llm6clientNtB4_13HttpLLMClient3new
FN:59,_RNvXNtNtCsgbM7bOyfJDi_18infraware_terminal3llm6clientNtB2_13HttpLLMClientNtNtCs5GmCzIpY9Qj_4core3fmt5Debug3fmt
FN:97,_RNvXs3_NtNtCsgbM7bOyfJDi_18infraware_terminal3llm6clientNtB5_13HttpLLMClientNtB5_14LLMClientTrait18query_with_context
FN:93,_RNvXs3_NtNtCsgbM7bOyfJDi_18infraware_terminal3llm6clientNtB5_13HttpLLMClientNtB5_14LLMClientTrait5query
FN:133,_RNvXs6_NtNtCsgbM7bOyfJDi_18infraware_terminal3llm6clientNtB5_13MockLLMClientNtB5_14LLMClientTrait5query
FN:41,_RNvYNtNtNtCskvicDDTzzc8_18infraware_terminal3llm6client13HttpLLMClientNtB4_14LLMClientTrait18query_with_historyB8_
FN:34,_RNvYNtNtNtCskvicDDTzzc8_18infraware_terminal3llm6client13MockLLMClientNtB4_14LLMClientTrait18query_with_contextB8_
FN:41,_RNvYNtNtNtCskvicDDTzzc8_18infraware_terminal3llm6client13MockLLMClientNtB4_14LLMClientTrait18query_with_historyB8_
FN:81,_RNvMs_NtNtCskvicDDTzzc8_18infraware_terminal3llm6clientNtB4_13HttpLLMClient12with_timeout
FN:126,_RNvMs0_NtNtCskvicDDTzzc8_18infraware_terminal3llm6clientNtB5_13MockLLMClient3new
FN:69,_RNvMs_NtNtCskvicDDTzzc8_18infraware_terminal3llm6clientNtB4_13HttpLLMClient3new
FN:59,_RNvXNtNtCskvicDDTzzc8_18infraware_terminal3llm6clientNtB2_13HttpLLMClientNtNtCs5GmCzIpY9Qj_4core3fmt5Debug3fmt
FN:97,_RNvXs3_NtNtCskvicDDTzzc8_18infraware_terminal3llm6clientNtB5_13HttpLLMClientNtB5_14LLMClientTrait18query_with_context
FN:93,_RNvXs3_NtNtCskvicDDTzzc8_18infraware_terminal3llm6clientNtB5_13HttpLLMClientNtB5_14LLMClientTrait5query
FN:133,_RNvXs6_NtNtCskvicDDTzzc8_18infraware_terminal3llm6clientNtB5_13MockLLMClientNtB5_14LLMClientTrait5query
FN:226,_RNvNtNtNtCs9VvCb0vlg4r_18infraware_terminal3llm6client5testss_13test_mock_llm
FN:248,_RNvNtNtNtCs9VvCb0vlg4r_18infraware_terminal3llm6client5testss_17test_mock_llm_k8s
FN:173,_RNvNtNtNtCs9VvCb0vlg4r_18infraware_terminal3llm6client5testss_19test_llm_client_new
FN:233,_RNvNtNtNtCs9VvCb0vlg4r_18infraware_terminal3llm6client5testss_20test_mock_llm_docker
FN:255,_RNvNtNtNtCs9VvCb0vlg4r_18infraware_terminal3llm6client5testss_22test_mock_llm_fallback
FN:240,_RNvNtNtNtCs9VvCb0vlg4r_18infraware_terminal3llm6client5testss_24test_mock_llm_kubernetes
FN:179,_RNvNtNtNtCs9VvCb0vlg4r_18infraware_terminal3llm6client5testss_28test_llm_client_with_timeout
FN:187,_RNvNtNtNtCs9VvCb0vlg4r_18infraware_terminal3llm6client5testss_30test_llm_request_serialization
FN:262,_RNvNtNtNtCs9VvCb0vlg4r_18infraware_terminal3llm6client5testss_30test_mock_llm_case_insensitive
FN:210,_RNvNtNtNtCs9VvCb0vlg4r_18infraware_terminal3llm6client5testss_33test_llm_response_deserialization
FN:198,_RNvNtNtNtCs9VvCb0vlg4r_18infraware_terminal3llm6client5testss_41test_llm_request_serialization_no_context
FN:218,_RNvNtNtNtCs9VvCb0vlg4r_18infraware_terminal3llm6client5testss_45test_llm_response_deserialization_no_metadata
FN:34,_RNvYNtNtNtCs9VvCb0vlg4r_18infraware_terminal3llm6client13MockLLMClientNtB4_14LLMClientTrait18query_with_contextB8_
FN:41,_RNvYNtNtNtCs9VvCb0vlg4r_18infraware_terminal3llm6client13MockLLMClientNtB4_14LLMClientTrait18query_with_historyB8_
FN:59,_RNvXNtNtCs9VvCb0vlg4r_18infraware_terminal3llm6clientNtB2_13HttpLLMClientNtNtCs5GmCzIpY9Qj_4core3fmt5Debug3fmt
FN:97,_RNvXs3_NtNtCs9VvCb0vlg4r_18infraware_terminal3llm6clientNtB5_13HttpLLMClientNtB5_14LLMClientTrait18query_with_context
FN:93,_RNvXs3_NtNtCs9VvCb0vlg4r_18infraware_terminal3llm6clientNtB5_13HttpLLMClientNtB5_14LLMClientTrait5query
FN:126,_RNvMs0_NtNtCs9VvCb0vlg4r_18infraware_terminal3llm6clientNtB5_13MockLLMClient3new
FN:81,_RNvMs_NtNtCs9VvCb0vlg4r_18infraware_terminal3llm6clientNtB4_13HttpLLMClient12with_timeout
FN:69,_RNvMs_NtNtCs9VvCb0vlg4r_18infraware_terminal3llm6clientNtB4_13HttpLLMClient3new
FN:133,_RNvXs6_NtNtCs9VvCb0vlg4r_18infraware_terminal3llm6clientNtB5_13MockLLMClientNtB5_14LLMClientTrait5query
FN:226,_RNCNvNtNtNtCs9VvCb0vlg4r_18infraware_terminal3llm6client5testss_13test_mock_llm0B9_
FN:248,_RNCNvNtNtNtCs9VvCb0vlg4r_18infraware_terminal3llm6client5testss_17test_mock_llm_k8s0B9_
FN:233,_RNCNvNtNtNtCs9VvCb0vlg4r_18infraware_terminal3llm6client5testss_20test_mock_llm_docker0B9_
FN:255,_RNCNvNtNtNtCs9VvCb0vlg4r_18infraware_terminal3llm6client5testss_22test_mock_llm_fallback0B9_
FN:240,_RNCNvNtNtNtCs9VvCb0vlg4r_18infraware_terminal3llm6client5testss_24test_mock_llm_kubernetes0B9_
FN:262,_RNCNvNtNtNtCs9VvCb0vlg4r_18infraware_terminal3llm6client5testss_30test_mock_llm_case_insensitive0B9_
FN:226,_RNCNvNtNtNtCsdeW3LDTW70x_18infraware_terminal3llm6client5testss_13test_mock_llm0B9_
FN:248,_RNCNvNtNtNtCsdeW3LDTW70x_18infraware_terminal3llm6client5testss_17test_mock_llm_k8s0B9_
FN:233,_RNCNvNtNtNtCsdeW3LDTW70x_18infraware_terminal3llm6client5testss_20test_mock_llm_docker0B9_
FN:255,_RNCNvNtNtNtCsdeW3LDTW70x_18infraware_terminal3llm6client5testss_22test_mock_llm_fallback0B9_
FN:240,_RNCNvNtNtNtCsdeW3LDTW70x_18infraware_terminal3llm6client5testss_24test_mock_llm_kubernetes0B9_
FN:262,_RNCNvNtNtNtCsdeW3LDTW70x_18infraware_terminal3llm6client5testss_30test_mock_llm_case_insensitive0B9_
FN:126,_RNvMs0_NtNtCsdeW3LDTW70x_18infraware_terminal3llm6clientNtB5_13MockLLMClient3new
FN:59,_RNvXNtNtCsdeW3LDTW70x_18infraware_terminal3llm6clientNtB2_13HttpLLMClientNtNtCs5GmCzIpY9Qj_4core3fmt5Debug3fmt
FN:97,_RNvXs3_NtNtCsdeW3LDTW70x_18infraware_terminal3llm6clientNtB5_13HttpLLMClientNtB5_14LLMClientTrait18query_with_context
FN:93,_RNvXs3_NtNtCsdeW3LDTW70x_18infraware_terminal3llm6clientNtB5_13HttpLLMClientNtB5_14LLMClientTrait5query
FN:34,_RNvYpNtNtNtCsdeW3LDTW70x_18infraware_terminal3llm6client14LLMClientTrait18query_with_contextB9_
FN:41,_RNvYpNtNtNtCsdeW3LDTW70x_18infraware_terminal3llm6client14LLMClientTrait18query_with_historyB9_
FN:226,_RNvNtNtNtCsdeW3LDTW70x_18infraware_terminal3llm6client5testss_13test_mock_llm
FN:248,_RNvNtNtNtCsdeW3LDTW70x_18infraware_terminal3llm6client5testss_17test_mock_llm_k8s
FN:173,_RNvNtNtNtCsdeW3LDTW70x_18infraware_terminal3llm6client5testss_19test_llm_client_new
FN:233,_RNvNtNtNtCsdeW3LDTW70x_18infraware_terminal3llm6client5testss_20test_mock_llm_docker
FN:255,_RNvNtNtNtCsdeW3LDTW70x_18infraware_terminal3llm6client5testss_22test_mock_llm_fallback
FN:240,_RNvNtNtNtCsdeW3LDTW70x_18infraware_terminal3llm6client5testss_24test_mock_llm_kubernetes
FN:179,_RNvNtNtNtCsdeW3LDTW70x_18infraware_terminal3llm6client5testss_28test_llm_client_with_timeout
FN:187,_RNvNtNtNtCsdeW3LDTW70x_18infraware_terminal3llm6client5testss_30test_llm_request_serialization
FN:262,_RNvNtNtNtCsdeW3LDTW70x_18infraware_terminal3llm6client5testss_30test_mock_llm_case_insensitive
FN:210,_RNvNtNtNtCsdeW3LDTW70x_18infraware_terminal3llm6client5testss_33test_llm_response_deserialization
FN:198,_RNvNtNtNtCsdeW3LDTW70x_18infraware_terminal3llm6client5testss_41test_llm_request_serialization_no_context
FN:218,_RNvNtNtNtCsdeW3LDTW70x_18infraware_terminal3llm6client5testss_45test_llm_response_deserialization_no_metadata
FN:81,_RNvMs_NtNtCsdeW3LDTW70x_18infraware_terminal3llm6clientNtB4_13HttpLLMClient12with_timeout
FN:69,_RNvMs_NtNtCsdeW3LDTW70x_18infraware_terminal3llm6clientNtB4_13HttpLLMClient3new
FN:133,_RNvXs6_NtNtCsdeW3LDTW70x_18infraware_terminal3llm6clientNtB5_13MockLLMClientNtB5_14LLMClientTrait5query
FNDA:0,_RNvMs0_NtNtCsgbM7bOyfJDi_18infraware_terminal3llm6clientNtB5_13MockLLMClient3new
FNDA:0,_RNvMs_NtNtCsgbM7bOyfJDi_18infraware_terminal3llm6clientNtB4_13HttpLLMClient12with_timeout
FNDA:0,_RNvMs_NtNtCsgbM7bOyfJDi_18infraware_terminal3llm6clientNtB4_13HttpLLMClient3new
FNDA:0,_RNvXNtNtCsgbM7bOyfJDi_18infraware_terminal3llm6clientNtB2_13HttpLLMClientNtNtCs5GmCzIpY9Qj_4core3fmt5Debug3fmt
FNDA:0,_RNvXs3_NtNtCsgbM7bOyfJDi_18infraware_terminal3llm6clientNtB5_13HttpLLMClientNtB5_14LLMClientTrait18query_with_context
FNDA:0,_RNvXs3_NtNtCsgbM7bOyfJDi_18infraware_terminal3llm6clientNtB5_13HttpLLMClientNtB5_14LLMClientTrait5query
FNDA:2,_RNvXs6_NtNtCsgbM7bOyfJDi_18infraware_terminal3llm6clientNtB5_13MockLLMClientNtB5_14LLMClientTrait5query
FNDA:0,_RNvYNtNtNtCskvicDDTzzc8_18infraware_terminal3llm6client13HttpLLMClientNtB4_14LLMClientTrait18query_with_historyB8_
FNDA:0,_RNvYNtNtNtCskvicDDTzzc8_18infraware_terminal3llm6client13MockLLMClientNtB4_14LLMClientTrait18query_with_contextB8_
FNDA:0,_RNvYNtNtNtCskvicDDTzzc8_18infraware_terminal3llm6client13MockLLMClientNtB4_14LLMClientTrait18query_with_historyB8_
FNDA:0,_RNvMs_NtNtCskvicDDTzzc8_18infraware_terminal3llm6clientNtB4_13HttpLLMClient12with_timeout
FNDA:0,_RNvMs0_NtNtCskvicDDTzzc8_18infraware_terminal3llm6clientNtB5_13MockLLMClient3new
FNDA:0,_RNvMs_NtNtCskvicDDTzzc8_18infraware_terminal3llm6clientNtB4_13HttpLLMClient3new
FNDA:0,_RNvXNtNtCskvicDDTzzc8_18infraware_terminal3llm6clientNtB2_13HttpLLMClientNtNtCs5GmCzIpY9Qj_4core3fmt5Debug3fmt
FNDA:0,_RNvXs3_NtNtCskvicDDTzzc8_18infraware_terminal3llm6clientNtB5_13HttpLLMClientNtB5_14LLMClientTrait18query_with_context
FNDA:0,_RNvXs3_NtNtCskvicDDTzzc8_18infraware_terminal3llm6clientNtB5_13HttpLLMClientNtB5_14LLMClientTrait5query
FNDA:0,_RNvXs6_NtNtCskvicDDTzzc8_18infraware_terminal3llm6clientNtB5_13MockLLMClientNtB5_14LLMClientTrait5query
FNDA:1,_RNvNtNtNtCs9VvCb0vlg4r_18infraware_terminal3llm6client5testss_13test_mock_llm
FNDA:1,_RNvNtNtNtCs9VvCb0vlg4r_18infraware_terminal3llm6client5testss_17test_mock_llm_k8s
FNDA:1,_RNvNtNtNtCs9VvCb0vlg4r_18infraware_terminal3llm6client5testss_19test_llm_client_new
FNDA:1,_RNvNtNtNtCs9VvCb0vlg4r_18infraware_terminal3llm6client5testss_20test_mock_llm_docker
FNDA:1,_RNvNtNtNtCs9VvCb0vlg4r_18infraware_terminal3llm6client5testss_22test_mock_llm_fallback
FNDA:1,_RNvNtNtNtCs9VvCb0vlg4r_18infraware_terminal3llm6client5testss_24test_mock_llm_kubernetes
FNDA:1,_RNvNtNtNtCs9VvCb0vlg4r_18infraware_terminal3llm6client5testss_28test_llm_client_with_timeout
FNDA:1,_RNvNtNtNtCs9VvCb0vlg4r_18infraware_terminal3llm6client5testss_30test_llm_request_serialization
FNDA:1,_RNvNtNtNtCs9VvCb0vlg4r_18infraware_terminal3llm6client5testss_30test_mock_llm_case_insensitive
FNDA:1,_RNvNtNtNtCs9VvCb0vlg4r_18infraware_terminal3llm6client5testss_33test_llm_response_deserialization
FNDA:1,_RNvNtNtNtCs9VvCb0vlg4r_18infraware_terminal3llm6client5testss_41test_llm_request_serialization_no_context
FNDA:1,_RNvNtNtNtCs9VvCb0vlg4r_18infraware_terminal3llm6client5testss_45test_llm_response_deserialization_no_metadata
FNDA:0,_RNvYNtNtNtCs9VvCb0vlg4r_18infraware_terminal3llm6client13MockLLMClientNtB4_14LLMClientTrait18query_with_contextB8_
FNDA:0,_RNvYNtNtNtCs9VvCb0vlg4r_18infraware_terminal3llm6client13MockLLMClientNtB4_14LLMClientTrait18query_with_historyB8_
FNDA:0,_RNvXNtNtCs9VvCb0vlg4r_18infraware_terminal3llm6clientNtB2_13HttpLLMClientNtNtCs5GmCzIpY9Qj_4core3fmt5Debug3fmt
FNDA:0,_RNvXs3_NtNtCs9VvCb0vlg4r_18infraware_terminal3llm6clientNtB5_13HttpLLMClientNtB5_14LLMClientTrait18query_with_context
FNDA:0,_RNvXs3_NtNtCs9VvCb0vlg4r_18infraware_terminal3llm6clientNtB5_13HttpLLMClientNtB5_14LLMClientTrait5query
FNDA:8,_RNvMs0_NtNtCs9VvCb0vlg4r_18infraware_terminal3llm6clientNtB5_13MockLLMClient3new
FNDA:1,_RNvMs_NtNtCs9VvCb0vlg4r_18infraware_terminal3llm6clientNtB4_13HttpLLMClient12with_timeout
FNDA:1,_RNvMs_NtNtCs9VvCb0vlg4r_18infraware_terminal3llm6clientNtB4_13HttpLLMClient3new
FNDA:6,_RNvXs6_NtNtCs9VvCb0vlg4r_18infraware_terminal3llm6clientNtB5_13MockLLMClientNtB5_14LLMClientTrait5query
FNDA:1,_RNCNvNtNtNtCs9VvCb0vlg4r_18infraware_terminal3llm6client5testss_13test_mock_llm0B9_
FNDA:1,_RNCNvNtNtNtCs9VvCb0vlg4r_18infraware_terminal3llm6client5testss_17test_mock_llm_k8s0B9_
FNDA:1,_RNCNvNtNtNtCs9VvCb0vlg4r_18infraware_terminal3llm6client5testss_20test_mock_llm_docker0B9_
FNDA:1,_RNCNvNtNtNtCs9VvCb0vlg4r_18infraware_terminal3llm6client5testss_22test_mock_llm_fallback0B9_
FNDA:1,_RNCNvNtNtNtCs9VvCb0vlg4r_18infraware_terminal3llm6client5testss_24test_mock_llm_kubernetes0B9_
FNDA:1,_RNCNvNtNtNtCs9VvCb0vlg4r_18infraware_terminal3llm6client5testss_30test_mock_llm_case_insensitive0B9_
FNDA:1,_RNCNvNtNtNtCsdeW3LDTW70x_18infraware_terminal3llm6client5testss_13test_mock_llm0B9_
FNDA:1,_RNCNvNtNtNtCsdeW3LDTW70x_18infraware_terminal3llm6client5testss_17test_mock_llm_k8s0B9_
FNDA:1,_RNCNvNtNtNtCsdeW3LDTW70x_18infraware_terminal3llm6client5testss_20test_mock_llm_docker0B9_
FNDA:1,_RNCNvNtNtNtCsdeW3LDTW70x_18infraware_terminal3llm6client5testss_22test_mock_llm_fallback0B9_
FNDA:1,_RNCNvNtNtNtCsdeW3LDTW70x_18infraware_terminal3llm6client5testss_24test_mock_llm_kubernetes0B9_
FNDA:1,_RNCNvNtNtNtCsdeW3LDTW70x_18infraware_terminal3llm6client5testss_30test_mock_llm_case_insensitive0B9_
FNDA:0,_RNvMs0_NtNtCsdeW3LDTW70x_18infraware_terminal3llm6clientNtB5_13MockLLMClient3new
FNDA:0,_RNvXNtNtCsdeW3LDTW70x_18infraware_terminal3llm6clientNtB2_13HttpLLMClientNtNtCs5GmCzIpY9Qj_4core3fmt5Debug3fmt
FNDA:0,_RNvXs3_NtNtCsdeW3LDTW70x_18infraware_terminal3llm6clientNtB5_13HttpLLMClientNtB5_14LLMClientTrait18query_with_context
FNDA:0,_RNvXs3_NtNtCsdeW3LDTW70x_18infraware_terminal3llm6clientNtB5_13HttpLLMClientNtB5_14LLMClientTrait5query
FNDA:0,_RNvYpNtNtNtCsdeW3LDTW70x_18infraware_terminal3llm6client14LLMClientTrait18query_with_contextB9_
FNDA:0,_RNvYpNtNtNtCsdeW3LDTW70x_18infraware_terminal3llm6client14LLMClientTrait18query_with_historyB9_
FNDA:1,_RNvNtNtNtCsdeW3LDTW70x_18infraware_terminal3llm6client5testss_13test_mock_llm
FNDA:1,_RNvNtNtNtCsdeW3LDTW70x_18infraware_terminal3llm6client5testss_17test_mock_llm_k8s
FNDA:1,_RNvNtNtNtCsdeW3LDTW70x_18infraware_terminal3llm6client5testss_19test_llm_client_new
FNDA:1,_RNvNtNtNtCsdeW3LDTW70x_18infraware_terminal3llm6client5testss_20test_mock_llm_docker
FNDA:1,_RNvNtNtNtCsdeW3LDTW70x_18infraware_terminal3llm6client5testss_22test_mock_llm_fallback
FNDA:1,_RNvNtNtNtCsdeW3LDTW70x_18infraware_terminal3llm6client5testss_24test_mock_llm_kubernetes
FNDA:1,_RNvNtNtNtCsdeW3LDTW70x_18infraware_terminal3llm6client5testss_28test_llm_client_with_timeout
FNDA:1,_RNvNtNtNtCsdeW3LDTW70x_18infraware_terminal3llm6client5testss_30test_llm_request_serialization
FNDA:1,_RNvNtNtNtCsdeW3LDTW70x_18infraware_terminal3llm6client5testss_30test_mock_llm_case_insensitive
FNDA:1,_RNvNtNtNtCsdeW3LDTW70x_18infraware_terminal3llm6client5testss_33test_llm_response_deserialization
FNDA:1,_RNvNtNtNtCsdeW3LDTW70x_18infraware_terminal3llm6client5testss_41test_llm_request_serialization_no_context
FNDA:1,_RNvNtNtNtCsdeW3LDTW70x_18infraware_terminal3llm6client5testss_45test_llm_response_deserialization_no_metadata
FNDA:1,_RNvMs_NtNtCsdeW3LDTW70x_18infraware_terminal3llm6clientNtB4_13HttpLLMClient12with_timeout
FNDA:1,_RNvMs_NtNtCsdeW3LDTW70x_18infraware_terminal3llm6clientNtB4_13HttpLLMClient3new
FNDA:6,_RNvXs6_NtNtCsdeW3LDTW70x_18infraware_terminal3llm6clientNtB5_13MockLLMClientNtB5_14LLMClientTrait5query
FNF:27
FNH:22
DA:34,0
DA:37,0
DA:41,0
DA:49,0
DA:59,0
DA:60,0
DA:61,0
DA:62,0
DA:63,0
DA:64,0
DA:69,2
DA:70,2
DA:71,2
DA:72,2
DA:73,2
DA:74,2
DA:75,2
DA:76,2
DA:77,2
DA:81,2
DA:83,2
DA:84,2
DA:85,2
DA:86,2
DA:88,2
DA:93,0
DA:95,0
DA:97,0
DA:118,0
DA:126,8
DA:127,8
DA:128,8
DA:133,14
DA:165,14
DA:173,2
DA:174,2
DA:175,2
DA:176,2
DA:179,2
DA:180,2
DA:181,2
DA:182,2
DA:183,2
DA:184,2
DA:187,2
DA:188,2
DA:189,2
DA:190,2
DA:191,2
DA:192,2
DA:193,2
DA:194,2
DA:195,2
DA:198,2
DA:199,2
DA:200,2
DA:201,2
DA:202,2
DA:203,2
DA:204,2
DA:206,2
DA:207,2
DA:210,2
DA:211,2
DA:212,2
DA:213,2
DA:214,2
DA:215,2
DA:218,2
DA:219,2
DA:220,2
DA:221,2
DA:222,2
DA:223,2
DA:226,2
DA:227,2
DA:228,2
DA:229,2
DA:230,2
DA:233,2
DA:234,2
DA:235,2
DA:236,2
DA:237,2
DA:240,2
DA:241,2
DA:242,2
DA:243,2
DA:244,2
DA:245,2
DA:248,2
DA:249,2
DA:250,2
DA:251,2
DA:252,2
DA:255,2
DA:256,2
DA:257,2
DA:258,2
DA:259,2
DA:262,2
DA:263,2
DA:264,2
DA:265,2
DA:266,2
BRF:0
BRH:0
LF:117
LH:103
end_of_record
SF:/home/crist/infraware-terminal/terminal-app/src/llm/renderer.rs
FN:84,_RNCNvMs_NtNtCsgbM7bOyfJDi_18infraware_terminal3llm8rendererNtB6_16ResponseRenderer13format_inline0Ba_
FN:104,_RNCNvMs_NtNtCsgbM7bOyfJDi_18infraware_terminal3llm8rendererNtB6_16ResponseRenderer13format_inlines_0Ba_
FN:125,_RNCNvMs_NtNtCsgbM7bOyfJDi_18infraware_terminal3llm8rendererNtB6_16ResponseRenderer14highlight_code0Ba_
FN:14,_RNvXNtNtCskvicDDTzzc8_18infraware_terminal3llm8rendererNtB2_16ResponseRendererNtNtCs5GmCzIpY9Qj_4core3fmt5Debug3fmt
FN:84,_RNCNvMs_NtNtCskvicDDTzzc8_18infraware_terminal3llm8rendererNtB6_16ResponseRenderer13format_inline0Ba_
FN:104,_RNCNvMs_NtNtCskvicDDTzzc8_18infraware_terminal3llm8rendererNtB6_16ResponseRenderer13format_inlines_0Ba_
FN:125,_RNCNvMs_NtNtCskvicDDTzzc8_18infraware_terminal3llm8rendererNtB6_16ResponseRenderer14highlight_code0Ba_
FN:74,_RNvMs_NtNtCskvicDDTzzc8_18infraware_terminal3llm8rendererNtB4_16ResponseRenderer13format_inline
FN:120,_RNvMs_NtNtCskvicDDTzzc8_18infraware_terminal3llm8rendererNtB4_16ResponseRenderer14highlight_code
FN:24,_RNvMs_NtNtCskvicDDTzzc8_18infraware_terminal3llm8rendererNtB4_16ResponseRenderer3new
FN:32,_RNvMs_NtNtCskvicDDTzzc8_18infraware_terminal3llm8rendererNtB4_16ResponseRenderer6render
FN:151,_RNvXs0_NtNtCskvicDDTzzc8_18infraware_terminal3llm8rendererNtB5_16ResponseRendererNtNtCs5GmCzIpY9Qj_4core7default7Default7default
FN:151,_RNvXs0_NtNtCs9VvCb0vlg4r_18infraware_terminal3llm8rendererNtB5_16ResponseRendererNtNtCs5GmCzIpY9Qj_4core7default7Default7default
FN:74,_RNvMs_NtNtCs9VvCb0vlg4r_18infraware_terminal3llm8rendererNtB4_16ResponseRenderer13format_inline
FN:120,_RNvMs_NtNtCs9VvCb0vlg4r_18infraware_terminal3llm8rendererNtB4_16ResponseRenderer14highlight_code
FN:24,_RNvMs_NtNtCs9VvCb0vlg4r_18infraware_terminal3llm8rendererNtB4_16ResponseRenderer3new
FN:32,_RNvMs_NtNtCs9VvCb0vlg4r_18infraware_terminal3llm8rendererNtB4_16ResponseRenderer6render
FN:14,_RNvXNtNtCs9VvCb0vlg4r_18infraware_terminal3llm8rendererNtB2_16ResponseRendererNtNtCs5GmCzIpY9Qj_4core3fmt5Debug3fmt
FN:84,_RNCNvMs_NtNtCs9VvCb0vlg4r_18infraware_terminal3llm8rendererNtB6_16ResponseRenderer13format_inline0Ba_
FN:104,_RNCNvMs_NtNtCs9VvCb0vlg4r_18infraware_terminal3llm8rendererNtB6_16ResponseRenderer13format_inlines_0Ba_
FN:125,_RNCNvMs_NtNtCs9VvCb0vlg4r_18infraware_terminal3llm8rendererNtB6_16ResponseRenderer14highlight_code0Ba_
FN:169,_RNvNtNtNtCs9VvCb0vlg4r_18infraware_terminal3llm8renderer5testss_22test_render_code_block
FN:161,_RNvNtNtNtCs9VvCb0vlg4r_18infraware_terminal3llm8renderer5testss_22test_render_plain_text
FN:179,_RNvNtNtNtCs9VvCb0vlg4r_18infraware_terminal3llm8renderer5testss_23test_format_inline_code
FN:74,_RNvMs_NtNtCsdeW3LDTW70x_18infraware_terminal3llm8rendererNtB4_16ResponseRenderer13format_inline
FN:120,_RNvMs_NtNtCsdeW3LDTW70x_18infraware_terminal3llm8rendererNtB4_16ResponseRenderer14highlight_code
FN:24,_RNvMs_NtNtCsdeW3LDTW70x_18infraware_terminal3llm8rendererNtB4_16ResponseRenderer3new
FN:32,_RNvMs_NtNtCsdeW3LDTW70x_18infraware_terminal3llm8rendererNtB4_16ResponseRenderer6render
FN:84,_RNCNvMs_NtNtCsdeW3LDTW70x_18infraware_terminal3llm8rendererNtB6_16ResponseRenderer13format_inline0Ba_
FN:104,_RNCNvMs_NtNtCsdeW3LDTW70x_18infraware_terminal3llm8rendererNtB6_16ResponseRenderer13format_inlines_0Ba_
FN:125,_RNCNvMs_NtNtCsdeW3LDTW70x_18infraware_terminal3llm8rendererNtB6_16ResponseRenderer14highlight_code0Ba_
FN:169,_RNvNtNtNtCsdeW3LDTW70x_18infraware_terminal3llm8renderer5testss_22test_render_code_block
FN:161,_RNvNtNtNtCsdeW3LDTW70x_18infraware_terminal3llm8renderer5testss_22test_render_plain_text
FN:179,_RNvNtNtNtCsdeW3LDTW70x_18infraware_terminal3llm8renderer5testss_23test_format_inline_code
FN:14,_RNvXNtNtCsdeW3LDTW70x_18infraware_terminal3llm8rendererNtB2_16ResponseRendererNtNtCs5GmCzIpY9Qj_4core3fmt5Debug3fmt
FN:151,_RNvXs0_NtNtCsdeW3LDTW70x_18infraware_terminal3llm8rendererNtB5_16ResponseRendererNtNtCs5GmCzIpY9Qj_4core7default7Default7default
FN:74,_RNvMs_NtNtCsgbM7bOyfJDi_18infraware_terminal3llm8rendererNtB4_16ResponseRenderer13format_inline
FN:120,_RNvMs_NtNtCsgbM7bOyfJDi_18infraware_terminal3llm8rendererNtB4_16ResponseRenderer14highlight_code
FN:24,_RNvMs_NtNtCsgbM7bOyfJDi_18infraware_terminal3llm8rendererNtB4_16ResponseRenderer3new
FN:32,_RNvMs_NtNtCsgbM7bOyfJDi_18infraware_terminal3llm8rendererNtB4_16ResponseRenderer6render
FN:14,_RNvXNtNtCsgbM7bOyfJDi_18infraware_terminal3llm8rendererNtB2_16ResponseRendererNtNtCs5GmCzIpY9Qj_4core3fmt5Debug3fmt
FN:151,_RNvXs0_NtNtCsgbM7bOyfJDi_18infraware_terminal3llm8rendererNtB5_16ResponseRendererNtNtCs5GmCzIpY9Qj_4core7default7Default7default
FNDA:0,_RNCNvMs_NtNtCsgbM7bOyfJDi_18infraware_terminal3llm8rendererNtB6_16ResponseRenderer13format_inline0Ba_
FNDA:0,_RNCNvMs_NtNtCsgbM7bOyfJDi_18infraware_terminal3llm8rendererNtB6_16ResponseRenderer13format_inlines_0Ba_
FNDA:0,_RNCNvMs_NtNtCsgbM7bOyfJDi_18infraware_terminal3llm8rendererNtB6_16ResponseRenderer14highlight_code0Ba_
FNDA:0,_RNvXNtNtCskvicDDTzzc8_18infraware_terminal3llm8rendererNtB2_16ResponseRendererNtNtCs5GmCzIpY9Qj_4core3fmt5Debug3fmt
FNDA:0,_RNCNvMs_NtNtCskvicDDTzzc8_18infraware_terminal3llm8rendererNtB6_16ResponseRenderer13format_inline0Ba_
FNDA:0,_RNCNvMs_NtNtCskvicDDTzzc8_18infraware_terminal3llm8rendererNtB6_16ResponseRenderer13format_inlines_0Ba_
FNDA:0,_RNCNvMs_NtNtCskvicDDTzzc8_18infraware_terminal3llm8rendererNtB6_16ResponseRenderer14highlight_code0Ba_
FNDA:0,_RNvMs_NtNtCskvicDDTzzc8_18infraware_terminal3llm8rendererNtB4_16ResponseRenderer13format_inline
FNDA:0,_RNvMs_NtNtCskvicDDTzzc8_18infraware_terminal3llm8rendererNtB4_16ResponseRenderer14highlight_code
FNDA:0,_RNvMs_NtNtCskvicDDTzzc8_18infraware_terminal3llm8rendererNtB4_16ResponseRenderer3new
FNDA:0,_RNvMs_NtNtCskvicDDTzzc8_18infraware_terminal3llm8rendererNtB4_16ResponseRenderer6render
FNDA:0,_RNvXs0_NtNtCskvicDDTzzc8_18infraware_terminal3llm8rendererNtB5_16ResponseRendererNtNtCs5GmCzIpY9Qj_4core7default7Default7default
FNDA:0,_RNvXs0_NtNtCs9VvCb0vlg4r_18infraware_terminal3llm8rendererNtB5_16ResponseRendererNtNtCs5GmCzIpY9Qj_4core7default7Default7default
FNDA:11,_RNvMs_NtNtCs9VvCb0vlg4r_18infraware_terminal3llm8rendererNtB4_16ResponseRenderer13format_inline
FNDA:1,_RNvMs_NtNtCs9VvCb0vlg4r_18infraware_terminal3llm8rendererNtB4_16ResponseRenderer14highlight_code
FNDA:11,_RNvMs_NtNtCs9VvCb0vlg4r_18infraware_terminal3llm8rendererNtB4_16ResponseRenderer3new
FNDA:6,_RNvMs_NtNtCs9VvCb0vlg4r_18infraware_terminal3llm8rendererNtB4_16ResponseRenderer6render
FNDA:1,_RNvXNtNtCs9VvCb0vlg4r_18infraware_terminal3llm8rendererNtB2_16ResponseRendererNtNtCs5GmCzIpY9Qj_4core3fmt5Debug3fmt
FNDA:3,_RNCNvMs_NtNtCs9VvCb0vlg4r_18infraware_terminal3llm8rendererNtB6_16ResponseRenderer13format_inline0Ba_
FNDA:3,_RNCNvMs_NtNtCs9VvCb0vlg4r_18infraware_terminal3llm8rendererNtB6_16ResponseRenderer13format_inlines_0Ba_
FNDA:1,_RNCNvMs_NtNtCs9VvCb0vlg4r_18infraware_terminal3llm8rendererNtB6_16ResponseRenderer14highlight_code0Ba_
FNDA:1,_RNvNtNtNtCs9VvCb0vlg4r_18infraware_terminal3llm8renderer5testss_22test_render_code_block
FNDA:1,_RNvNtNtNtCs9VvCb0vlg4r_18infraware_terminal3llm8renderer5testss_22test_render_plain_text
FNDA:1,_RNvNtNtNtCs9VvCb0vlg4r_18infraware_terminal3llm8renderer5testss_23test_format_inline_code
FNDA:5,_RNvMs_NtNtCsdeW3LDTW70x_18infraware_terminal3llm8rendererNtB4_16ResponseRenderer13format_inline
FNDA:1,_RNvMs_NtNtCsdeW3LDTW70x_18infraware_terminal3llm8rendererNtB4_16ResponseRenderer14highlight_code
FNDA:3,_RNvMs_NtNtCsdeW3LDTW70x_18infraware_terminal3llm8rendererNtB4_16ResponseRenderer3new
FNDA:2,_RNvMs_NtNtCsdeW3LDTW70x_18infraware_terminal3llm8rendererNtB4_16ResponseRenderer6render
FNDA:0,_RNCNvMs_NtNtCsdeW3LDTW70x_18infraware_terminal3llm8rendererNtB6_16ResponseRenderer13format_inline0Ba_
FNDA:3,_RNCNvMs_NtNtCsdeW3LDTW70x_18infraware_terminal3llm8rendererNtB6_16ResponseRenderer13format_inlines_0Ba_
FNDA:1,_RNCNvMs_NtNtCsdeW3LDTW70x_18infraware_terminal3llm8rendererNtB6_16ResponseRenderer14highlight_code0Ba_
FNDA:1,_RNvNtNtNtCsdeW3LDTW70x_18infraware_terminal3llm8renderer5testss_22test_render_code_block
FNDA:1,_RNvNtNtNtCsdeW3LDTW70x_18infraware_terminal3llm8renderer5testss_22test_render_plain_text
FNDA:1,_RNvNtNtNtCsdeW3LDTW70x_18infraware_terminal3llm8renderer5testss_23test_format_inline_code
FNDA:0,_RNvXNtNtCsdeW3LDTW70x_18infraware_terminal3llm8rendererNtB2_16ResponseRendererNtNtCs5GmCzIpY9Qj_4core3fmt5Debug3fmt
FNDA:0,_RNvXs0_NtNtCsdeW3LDTW70x_18infraware_terminal3llm8rendererNtB5_16ResponseRendererNtNtCs5GmCzIpY9Qj_4core7default7Default7default
FNDA:2,_RNvMs_NtNtCsgbM7bOyfJDi_18infraware_terminal3llm8rendererNtB4_16ResponseRenderer13format_inline
FNDA:1,_RNvMs_NtNtCsgbM7bOyfJDi_18infraware_terminal3llm8rendererNtB4_16ResponseRenderer14highlight_code
FNDA:1,_RNvMs_NtNtCsgbM7bOyfJDi_18infraware_terminal3llm8rendererNtB4_16ResponseRenderer3new
FNDA:1,_RNvMs_NtNtCsgbM7bOyfJDi_18infraware_terminal3llm8rendererNtB4_16ResponseRenderer6render
FNDA:0,_RNvXNtNtCsgbM7bOyfJDi_18infraware_terminal3llm8rendererNtB2_16ResponseRendererNtNtCs5GmCzIpY9Qj_4core3fmt5Debug3fmt
FNDA:0,_RNvXs0_NtNtCsgbM7bOyfJDi_18infraware_terminal3llm8rendererNtB5_16ResponseRendererNtNtCs5GmCzIpY9Qj_4core7default7Default7default
FNF:12
FNH:11
DA:14,1
DA:15,1
DA:16,1
DA:17,1
DA:18,1
DA:19,1
DA:24,15
DA:25,15
DA:26,15
DA:27,15
DA:28,15
DA:29,15
DA:32,9
DA:33,9
DA:34,9
DA:35,9
DA:36,9
DA:38,31
DA:40,31
DA:41,6
DA:42,3
DA:43,3
DA:44,3
DA:45,3
DA:46,3
DA:47,3
DA:48,3
DA:49,3
DA:50,3
DA:51,3
DA:52,6
DA:53,25
DA:55,25
DA:56,9
DA:57,16
DA:58,16
DA:59,16
DA:60,16
DA:61,16
DA:65,9
DA:66,0
DA:67,0
DA:68,9
DA:70,9
DA:71,9
DA:74,18
DA:75,18
DA:79,18
DA:80,1
DA:81,1
DA:82,1
DA:83,1
DA:84,3
DA:85,3
DA:87,1
DA:89,2
DA:91,3
DA:92,1
DA:93,1
DA:94,17
DA:97,18
DA:99,2
DA:100,2
DA:101,2
DA:102,2
DA:103,2
DA:104,6
DA:105,6
DA:106,2
DA:108,4
DA:110,6
DA:111,2
DA:112,2
DA:113,0
DA:114,16
DA:116,18
DA:117,18
DA:120,3
DA:122,3
DA:123,3
DA:124,3
DA:125,3
DA:127,3
DA:128,3
DA:130,3
DA:133,3
DA:135,12
DA:136,9
DA:137,9
DA:138,9
DA:139,9
DA:140,9
DA:141,9
DA:144,3
DA:146,3
DA:147,3
DA:151,0
DA:152,0
DA:153,0
DA:161,2
DA:162,2
DA:163,2
DA:164,2
DA:165,2
DA:166,2
DA:169,2
DA:170,2
DA:171,2
DA:172,2
DA:173,2
DA:175,2
DA:176,2
DA:179,2
DA:180,2
DA:181,2
DA:182,2
DA:183,2
BRF:0
BRH:0
LF:120
LH:114
end_of_record
SF:/home/crist/infraware-terminal/terminal-app/src/main.rs
FN:407,_RNvCskvicDDTzzc8_18infraware_terminal4main
FN:262,_RNvMs0_CskvicDDTzzc8_18infraware_terminalNtB5_17InfrawareTerminal12handle_event
FN:310,_RNvMs0_CskvicDDTzzc8_18infraware_terminalNtB5_17InfrawareTerminal13handle_submit
FN:353,_RNvMs0_CskvicDDTzzc8_18infraware_terminalNtB5_17InfrawareTerminal14handle_command
FN:369,_RNvMs0_CskvicDDTzzc8_18infraware_terminalNtB5_17InfrawareTerminal19handle_command_typo
FN:399,_RNvMs0_CskvicDDTzzc8_18infraware_terminalNtB5_17InfrawareTerminal21handle_tab_completion
FN:388,_RNvMs0_CskvicDDTzzc8_18infraware_terminalNtB5_17InfrawareTerminal23handle_natural_language
FN:209,_RNvMs0_CskvicDDTzzc8_18infraware_terminalNtB5_17InfrawareTerminal3run
FN:188,_RNvMs0_CskvicDDTzzc8_18infraware_terminalNtB5_17InfrawareTerminal7builder
FN:136,_RNvMs_CskvicDDTzzc8_18infraware_terminalNtB4_24InfrawareTerminalBuilder15with_llm_client
FN:98,_RNvMs_CskvicDDTzzc8_18infraware_terminalNtB4_24InfrawareTerminalBuilder3new
FN:162,_RNvMs_CskvicDDTzzc8_18infraware_terminalNtB4_24InfrawareTerminalBuilder5build
FN:196,_RNvMs0_CskvicDDTzzc8_18infraware_terminalNtB5_17InfrawareTerminal15new_with_client
FN:204,_RNvMs0_CskvicDDTzzc8_18infraware_terminalNtB5_17InfrawareTerminal3new
FN:118,_RNvMs_CskvicDDTzzc8_18infraware_terminalNtB4_24InfrawareTerminalBuilder10with_state
FN:142,_RNvMs_CskvicDDTzzc8_18infraware_terminalNtB4_24InfrawareTerminalBuilder13with_renderer
FN:124,_RNvMs_CskvicDDTzzc8_18infraware_terminalNtB4_24InfrawareTerminalBuilder15with_classifier
FN:130,_RNvMs_CskvicDDTzzc8_18infraware_terminalNtB4_24InfrawareTerminalBuilder18with_event_handler
FN:112,_RNvMs_CskvicDDTzzc8_18infraware_terminalNtB4_24InfrawareTerminalBuilder7with_ui
FN:79,_RNvXCskvicDDTzzc8_18infraware_terminalNtB2_24InfrawareTerminalBuilderNtNtCs5GmCzIpY9Qj_4core3fmt5Debug3fmt
FN:212,_RNCNCNvMs0_CskvicDDTzzc8_18infraware_terminalNtB9_17InfrawareTerminal3run00B9_
FN:407,_RNCNvCskvicDDTzzc8_18infraware_terminal4main0B3_
FN:262,_RNCNvMs0_CskvicDDTzzc8_18infraware_terminalNtB7_17InfrawareTerminal12handle_event0B7_
FN:310,_RNCNvMs0_CskvicDDTzzc8_18infraware_terminalNtB7_17InfrawareTerminal13handle_submit0B7_
FN:358,_RNCNvMs0_CskvicDDTzzc8_18infraware_terminalNtB7_17InfrawareTerminal14handle_command0B7_
FN:374,_RNCNvMs0_CskvicDDTzzc8_18infraware_terminalNtB7_17InfrawareTerminal19handle_command_typo0B7_
FN:388,_RNCNvMs0_CskvicDDTzzc8_18infraware_terminalNtB7_17InfrawareTerminal23handle_natural_language0B7_
FN:209,_RNCNvMs0_CskvicDDTzzc8_18infraware_terminalNtB7_17InfrawareTerminal3run0B7_
FN:165,_RNCNvMs_CskvicDDTzzc8_18infraware_terminalNtB6_24InfrawareTerminalBuilder5build0B6_
FN:212,_RNCNCNvMs0_Cs9VvCb0vlg4r_18infraware_terminalNtB9_17InfrawareTerminal3run00B9_
FN:407,_RNCNvCs9VvCb0vlg4r_18infraware_terminal4main0B3_
FN:262,_RNCNvMs0_Cs9VvCb0vlg4r_18infraware_terminalNtB7_17InfrawareTerminal12handle_event0B7_
FN:310,_RNCNvMs0_Cs9VvCb0vlg4r_18infraware_terminalNtB7_17InfrawareTerminal13handle_submit0B7_
FN:358,_RNCNvMs0_Cs9VvCb0vlg4r_18infraware_terminalNtB7_17InfrawareTerminal14handle_command0B7_
FN:374,_RNCNvMs0_Cs9VvCb0vlg4r_18infraware_terminalNtB7_17InfrawareTerminal19handle_command_typo0B7_
FN:388,_RNCNvMs0_Cs9VvCb0vlg4r_18infraware_terminalNtB7_17InfrawareTerminal23handle_natural_language0B7_
FN:209,_RNCNvMs0_Cs9VvCb0vlg4r_18infraware_terminalNtB7_17InfrawareTerminal3run0B7_
FN:165,_RNCNvMs_Cs9VvCb0vlg4r_18infraware_terminalNtB6_24InfrawareTerminalBuilder5build0B6_
FN:407,_RNvCs9VvCb0vlg4r_18infraware_terminal4main
FN:262,_RNvMs0_Cs9VvCb0vlg4r_18infraware_terminalNtB5_17InfrawareTerminal12handle_event
FN:310,_RNvMs0_Cs9VvCb0vlg4r_18infraware_terminalNtB5_17InfrawareTerminal13handle_submit
FN:353,_RNvMs0_Cs9VvCb0vlg4r_18infraware_terminalNtB5_17InfrawareTerminal14handle_command
FN:196,_RNvMs0_Cs9VvCb0vlg4r_18infraware_terminalNtB5_17InfrawareTerminal15new_with_client
FN:369,_RNvMs0_Cs9VvCb0vlg4r_18infraware_terminalNtB5_17InfrawareTerminal19handle_command_typo
FN:399,_RNvMs0_Cs9VvCb0vlg4r_18infraware_terminalNtB5_17InfrawareTerminal21handle_tab_completion
FN:388,_RNvMs0_Cs9VvCb0vlg4r_18infraware_terminalNtB5_17InfrawareTerminal23handle_natural_language
FN:204,_RNvMs0_Cs9VvCb0vlg4r_18infraware_terminalNtB5_17InfrawareTerminal3new
FN:209,_RNvMs0_Cs9VvCb0vlg4r_18infraware_terminalNtB5_17InfrawareTerminal3run
FN:188,_RNvMs0_Cs9VvCb0vlg4r_18infraware_terminalNtB5_17InfrawareTerminal7builder
FN:118,_RNvMs_Cs9VvCb0vlg4r_18infraware_terminalNtB4_24InfrawareTerminalBuilder10with_state
FN:142,_RNvMs_Cs9VvCb0vlg4r_18infraware_terminalNtB4_24InfrawareTerminalBuilder13with_renderer
FN:124,_RNvMs_Cs9VvCb0vlg4r_18infraware_terminalNtB4_24InfrawareTerminalBuilder15with_classifier
FN:136,_RNvMs_Cs9VvCb0vlg4r_18infraware_terminalNtB4_24InfrawareTerminalBuilder15with_llm_client
FN:130,_RNvMs_Cs9VvCb0vlg4r_18infraware_terminalNtB4_24InfrawareTerminalBuilder18with_event_handler
FN:98,_RNvMs_Cs9VvCb0vlg4r_18infraware_terminalNtB4_24InfrawareTerminalBuilder3new
FN:162,_RNvMs_Cs9VvCb0vlg4r_18infraware_terminalNtB4_24InfrawareTerminalBuilder5build
FN:112,_RNvMs_Cs9VvCb0vlg4r_18infraware_terminalNtB4_24InfrawareTerminalBuilder7with_ui
FN:79,_RNvXCs9VvCb0vlg4r_18infraware_terminalNtB2_24InfrawareTerminalBuilderNtNtCs5GmCzIpY9Qj_4core3fmt5Debug3fmt
FNDA:0,_RNvCskvicDDTzzc8_18infraware_terminal4main
FNDA:0,_RNvMs0_CskvicDDTzzc8_18infraware_terminalNtB5_17InfrawareTerminal12handle_event
FNDA:0,_RNvMs0_CskvicDDTzzc8_18infraware_terminalNtB5_17InfrawareTerminal13handle_submit
FNDA:0,_RNvMs0_CskvicDDTzzc8_18infraware_terminalNtB5_17InfrawareTerminal14handle_command
FNDA:0,_RNvMs0_CskvicDDTzzc8_18infraware_terminalNtB5_17InfrawareTerminal19handle_command_typo
FNDA:0,_RNvMs0_CskvicDDTzzc8_18infraware_terminalNtB5_17InfrawareTerminal21handle_tab_completion
FNDA:0,_RNvMs0_CskvicDDTzzc8_18infraware_terminalNtB5_17InfrawareTerminal23handle_natural_language
FNDA:0,_RNvMs0_CskvicDDTzzc8_18infraware_terminalNtB5_17InfrawareTerminal3run
FNDA:0,_RNvMs0_CskvicDDTzzc8_18infraware_terminalNtB5_17InfrawareTerminal7builder
FNDA:0,_RNvMs_CskvicDDTzzc8_18infraware_terminalNtB4_24InfrawareTerminalBuilder15with_llm_client
FNDA:0,_RNvMs_CskvicDDTzzc8_18infraware_terminalNtB4_24InfrawareTerminalBuilder3new
FNDA:0,_RNvMs_CskvicDDTzzc8_18infraware_terminalNtB4_24InfrawareTerminalBuilder5build
FNDA:0,_RNvMs0_CskvicDDTzzc8_18infraware_terminalNtB5_17InfrawareTerminal15new_with_client
FNDA:0,_RNvMs0_CskvicDDTzzc8_18infraware_terminalNtB5_17InfrawareTerminal3new
FNDA:0,_RNvMs_CskvicDDTzzc8_18infraware_terminalNtB4_24InfrawareTerminalBuilder10with_state
FNDA:0,_RNvMs_CskvicDDTzzc8_18infraware_terminalNtB4_24InfrawareTerminalBuilder13with_renderer
FNDA:0,_RNvMs_CskvicDDTzzc8_18infraware_terminalNtB4_24InfrawareTerminalBuilder15with_classifier
FNDA:0,_RNvMs_CskvicDDTzzc8_18infraware_terminalNtB4_24InfrawareTerminalBuilder18with_event_handler
FNDA:0,_RNvMs_CskvicDDTzzc8_18infraware_terminalNtB4_24InfrawareTerminalBuilder7with_ui
FNDA:0,_RNvXCskvicDDTzzc8_18infraware_terminalNtB2_24InfrawareTerminalBuilderNtNtCs5GmCzIpY9Qj_4core3fmt5Debug3fmt
FNDA:0,_RNCNCNvMs0_CskvicDDTzzc8_18infraware_terminalNtB9_17InfrawareTerminal3run00B9_
FNDA:0,_RNCNvCskvicDDTzzc8_18infraware_terminal4main0B3_
FNDA:0,_RNCNvMs0_CskvicDDTzzc8_18infraware_terminalNtB7_17InfrawareTerminal12handle_event0B7_
FNDA:0,_RNCNvMs0_CskvicDDTzzc8_18infraware_terminalNtB7_17InfrawareTerminal13handle_submit0B7_
FNDA:0,_RNCNvMs0_CskvicDDTzzc8_18infraware_terminalNtB7_17InfrawareTerminal14handle_command0B7_
FNDA:0,_RNCNvMs0_CskvicDDTzzc8_18infraware_terminalNtB7_17InfrawareTerminal19handle_command_typo0B7_
FNDA:0,_RNCNvMs0_CskvicDDTzzc8_18infraware_terminalNtB7_17InfrawareTerminal23handle_natural_language0B7_
FNDA:0,_RNCNvMs0_CskvicDDTzzc8_18infraware_terminalNtB7_17InfrawareTerminal3run0B7_
FNDA:0,_RNCNvMs_CskvicDDTzzc8_18infraware_terminalNtB6_24InfrawareTerminalBuilder5build0B6_
FNDA:0,_RNCNCNvMs0_Cs9VvCb0vlg4r_18infraware_terminalNtB9_17InfrawareTerminal3run00B9_
FNDA:0,_RNCNvCs9VvCb0vlg4r_18infraware_terminal4main0B3_
FNDA:0,_RNCNvMs0_Cs9VvCb0vlg4r_18infraware_terminalNtB7_17InfrawareTerminal12handle_event0B7_
FNDA:0,_RNCNvMs0_Cs9VvCb0vlg4r_18infraware_terminalNtB7_17InfrawareTerminal13handle_submit0B7_
FNDA:0,_RNCNvMs0_Cs9VvCb0vlg4r_18infraware_terminalNtB7_17InfrawareTerminal14handle_command0B7_
FNDA:0,_RNCNvMs0_Cs9VvCb0vlg4r_18infraware_terminalNtB7_17InfrawareTerminal19handle_command_typo0B7_
FNDA:0,_RNCNvMs0_Cs9VvCb0vlg4r_18infraware_terminalNtB7_17InfrawareTerminal23handle_natural_language0B7_
FNDA:0,_RNCNvMs0_Cs9VvCb0vlg4r_18infraware_terminalNtB7_17InfrawareTerminal3run0B7_
FNDA:0,_RNCNvMs_Cs9VvCb0vlg4r_18infraware_terminalNtB6_24InfrawareTerminalBuilder5build0B6_
FNDA:0,_RNvCs9VvCb0vlg4r_18infraware_terminal4main
FNDA:0,_RNvMs0_Cs9VvCb0vlg4r_18infraware_terminalNtB5_17InfrawareTerminal12handle_event
FNDA:0,_RNvMs0_Cs9VvCb0vlg4r_18infraware_terminalNtB5_17InfrawareTerminal13handle_submit
FNDA:0,_RNvMs0_Cs9VvCb0vlg4r_18infraware_terminalNtB5_17InfrawareTerminal14handle_command
FNDA:0,_RNvMs0_Cs9VvCb0vlg4r_18infraware_terminalNtB5_17InfrawareTerminal15new_with_client
FNDA:0,_RNvMs0_Cs9VvCb0vlg4r_18infraware_terminalNtB5_17InfrawareTerminal19handle_command_typo
FNDA:0,_RNvMs0_Cs9VvCb0vlg4r_18infraware_terminalNtB5_17InfrawareTerminal21handle_tab_completion
FNDA:0,_RNvMs0_Cs9VvCb0vlg4r_18infraware_terminalNtB5_17InfrawareTerminal23handle_natural_language
FNDA:0,_RNvMs0_Cs9VvCb0vlg4r_18infraware_terminalNtB5_17InfrawareTerminal3new
FNDA:0,_RNvMs0_Cs9VvCb0vlg4r_18infraware_terminalNtB5_17InfrawareTerminal3run
FNDA:0,_RNvMs0_Cs9VvCb0vlg4r_18infraware_terminalNtB5_17InfrawareTerminal7builder
FNDA:0,_RNvMs_Cs9VvCb0vlg4r_18infraware_terminalNtB4_24InfrawareTerminalBuilder10with_state
FNDA:0,_RNvMs_Cs9VvCb0vlg4r_18infraware_terminalNtB4_24InfrawareTerminalBuilder13with_renderer
FNDA:0,_RNvMs_Cs9VvCb0vlg4r_18infraware_terminalNtB4_24InfrawareTerminalBuilder15with_classifier
FNDA:0,_RNvMs_Cs9VvCb0vlg4r_18infraware_terminalNtB4_24InfrawareTerminalBuilder15with_llm_client
FNDA:0,_RNvMs_Cs9VvCb0vlg4r_18infraware_terminalNtB4_24InfrawareTerminalBuilder18with_event_handler
FNDA:0,_RNvMs_Cs9VvCb0vlg4r_18infraware_terminalNtB4_24InfrawareTerminalBuilder3new
FNDA:0,_RNvMs_Cs9VvCb0vlg4r_18infraware_terminalNtB4_24InfrawareTerminalBuilder5build
FNDA:0,_RNvMs_Cs9VvCb0vlg4r_18infraware_terminalNtB4_24InfrawareTerminalBuilder7with_ui
FNDA:0,_RNvXCs9VvCb0vlg4r_18infraware_terminalNtB2_24InfrawareTerminalBuilderNtNtCs5GmCzIpY9Qj_4core3fmt5Debug3fmt
FNF:29
FNH:0
DA:79,0
DA:80,0
DA:81,0
DA:82,0
DA:83,0
DA:84,0
DA:85,0
DA:86,0
DA:87,0
DA:88,0
DA:89,0
DA:90,0
DA:91,0
DA:92,0
DA:93,0
DA:98,0
DA:99,0
DA:100,0
DA:101,0
DA:102,0
DA:103,0
DA:104,0
DA:105,0
DA:106,0
DA:107,0
DA:108,0
DA:109,0
DA:112,0
DA:113,0
DA:114,0
DA:115,0
DA:118,0
DA:119,0
DA:120,0
DA:121,0
DA:124,0
DA:125,0
DA:126,0
DA:127,0
DA:130,0
DA:131,0
DA:132,0
DA:133,0
DA:136,0
DA:137,0
DA:138,0
DA:139,0
DA:142,0
DA:143,0
DA:144,0
DA:145,0
DA:162,0
DA:163,0
DA:164,0
DA:165,0
DA:166,0
DA:169,0
DA:170,0
DA:171,0
DA:173,0
DA:174,0
DA:175,0
DA:176,0
DA:177,0
DA:178,0
DA:180,0
DA:188,0
DA:189,0
DA:190,0
DA:196,0
DA:197,0
DA:198,0
DA:204,0
DA:205,0
DA:206,0
DA:209,0
DA:212,0
DA:216,0
DA:217,0
DA:218,0
DA:221,0
DA:222,0
DA:225,0
DA:228,0
DA:231,0
DA:234,0
DA:235,0
DA:236,0
DA:238,0
DA:239,0
DA:240,0
DA:243,0
DA:248,0
DA:249,0
DA:250,0
DA:251,0
DA:254,0
DA:255,0
DA:258,0
DA:259,0
DA:262,0
DA:263,0
DA:265,0
DA:267,0
DA:268,0
DA:269,0
DA:270,0
DA:271,0
DA:272,0
DA:273,0
DA:274,0
DA:275,0
DA:276,0
DA:277,0
DA:278,0
DA:279,0
DA:280,0
DA:281,0
DA:282,0
DA:283,0
DA:284,0
DA:285,0
DA:286,0
DA:287,0
DA:288,0
DA:289,0
DA:290,0
DA:292,0
DA:294,0
DA:295,0
DA:296,0
DA:297,0
DA:298,0
DA:299,0
DA:300,0
DA:301,0
DA:302,0
DA:303,0
DA:306,0
DA:307,0
DA:310,0
DA:311,0
DA:313,0
DA:314,0
DA:315,0
DA:318,0
DA:321,0
DA:323,0
DA:324,0
DA:325,0
DA:327,0
DA:328,0
DA:330,0
DA:331,0
DA:334,0
DA:335,0
DA:336,0
DA:338,0
DA:339,0
DA:341,0
DA:344,0
DA:345,0
DA:347,0
DA:348,0
DA:353,0
DA:354,0
DA:355,0
DA:356,0
DA:357,0
DA:358,0
DA:359,0
DA:361,0
DA:362,0
DA:363,0
DA:364,0
DA:369,0
DA:370,0
DA:371,0
DA:372,0
DA:373,0
DA:374,0
DA:375,0
DA:376,0
DA:377,0
DA:381,0
DA:382,0
DA:383,0
DA:388,0
DA:389,0
DA:391,0
DA:392,0
DA:393,0
DA:394,0
DA:399,0
DA:400,0
DA:401,0
DA:402,0
DA:407,0
DA:409,0
DA:410,0
DA:411,0
DA:412,0
DA:415,0
DA:416,0
DA:421,0
DA:422,0
DA:423,0
DA:426,0
DA:427,0
DA:428,0
DA:429,0
DA:430,0
DA:431,0
DA:432,0
BRF:0
BRH:0
LF:228
LH:0
end_of_record
SF:/home/crist/infraware-terminal/terminal-app/src/orchestrators/command.rs
FN:22,_RNvMNtNtCskvicDDTzzc8_18infraware_terminal13orchestrators7commandNtB2_19CommandOrchestrator3new
FN:40,_RNvMNtNtCskvicDDTzzc8_18infraware_terminal13orchestrators7commandNtB2_19CommandOrchestrator14handle_command
FN:173,_RNvMNtNtCskvicDDTzzc8_18infraware_terminal13orchestrators7commandNtB2_19CommandOrchestrator17is_benign_failure
FN:120,_RNvMNtNtCskvicDDTzzc8_18infraware_terminal13orchestrators7commandNtB2_19CommandOrchestrator19execute_and_display
FN:70,_RNvMNtNtCskvicDDTzzc8_18infraware_terminal13orchestrators7commandNtB2_19CommandOrchestrator20handle_clear_command
FN:112,_RNvMNtNtCskvicDDTzzc8_18infraware_terminal13orchestrators7commandNtB2_19CommandOrchestrator24handle_command_not_found
FN:82,_RNvMNtNtCskvicDDTzzc8_18infraware_terminal13orchestrators7commandNtB2_19CommandOrchestrator29handle_reload_aliases_command
FN:47,_RNCNvMNtNtCskvicDDTzzc8_18infraware_terminal13orchestrators7commandNtB4_19CommandOrchestrator14handle_command0B8_
FN:126,_RNCNvMNtNtCskvicDDTzzc8_18infraware_terminal13orchestrators7commandNtB4_19CommandOrchestrator19execute_and_display0B8_
FN:82,_RNCNvMNtNtCskvicDDTzzc8_18infraware_terminal13orchestrators7commandNtB4_19CommandOrchestrator29handle_reload_aliases_command0B8_
FN:47,_RNCNvMNtNtCs9VvCb0vlg4r_18infraware_terminal13orchestrators7commandNtB4_19CommandOrchestrator14handle_command0B8_
FN:82,_RNCNvMNtNtCs9VvCb0vlg4r_18infraware_terminal13orchestrators7commandNtB4_19CommandOrchestrator29handle_reload_aliases_command0B8_
FN:40,_RNvMNtNtCs9VvCb0vlg4r_18infraware_terminal13orchestrators7commandNtB2_19CommandOrchestrator14handle_command
FN:70,_RNvMNtNtCs9VvCb0vlg4r_18infraware_terminal13orchestrators7commandNtB2_19CommandOrchestrator20handle_clear_command
FN:82,_RNvMNtNtCs9VvCb0vlg4r_18infraware_terminal13orchestrators7commandNtB2_19CommandOrchestrator29handle_reload_aliases_command
FN:173,_RNvMNtNtCs9VvCb0vlg4r_18infraware_terminal13orchestrators7commandNtB2_19CommandOrchestrator17is_benign_failure
FN:120,_RNvMNtNtCs9VvCb0vlg4r_18infraware_terminal13orchestrators7commandNtB2_19CommandOrchestrator19execute_and_display
FN:112,_RNvMNtNtCs9VvCb0vlg4r_18infraware_terminal13orchestrators7commandNtB2_19CommandOrchestrator24handle_command_not_found
FN:22,_RNvMNtNtCs9VvCb0vlg4r_18infraware_terminal13orchestrators7commandNtB2_19CommandOrchestrator3new
FN:186,_RNvNtNtNtCs9VvCb0vlg4r_18infraware_terminal13orchestrators7command5testss_22test_command_not_found
FN:378,_RNvNtNtNtCs9VvCb0vlg4r_18infraware_terminal13orchestrators7command5testss_22test_is_benign_failure
FN:292,_RNvNtNtNtCs9VvCb0vlg4r_18infraware_terminal13orchestrators7command5testss_23test_orchestrator_debug
FN:287,_RNvNtNtNtCs9VvCb0vlg4r_18infraware_terminal13orchestrators7command5testss_25test_orchestrator_default
FN:198,_RNvNtNtNtCs9VvCb0vlg4r_18infraware_terminal13orchestrators7command5testss_27test_execute_simple_command
FN:357,_RNvNtNtNtCs9VvCb0vlg4r_18infraware_terminal13orchestrators7command5testss_28test_exit_code_2_shows_error
FN:299,_RNvNtNtNtCs9VvCb0vlg4r_18infraware_terminal13orchestrators7command5testss_32test_execute_nonexistent_command
FN:335,_RNvNtNtNtCs9VvCb0vlg4r_18infraware_terminal13orchestrators7command5testss_32test_grep_no_match_exit_1_benign
FN:320,_RNvNtNtNtCs9VvCb0vlg4r_18infraware_terminal13orchestrators7command5testss_33test_execute_command_empty_output
FN:218,_RNvNtNtNtCs9VvCb0vlg4r_18infraware_terminal13orchestrators7command5testss_33test_execute_command_with_failure
FN:266,_RNvNtNtNtCs9VvCb0vlg4r_18infraware_terminal13orchestrators7command5testss_40test_execute_command_with_stderr_failure
FN:242,_RNvNtNtNtCs9VvCb0vlg4r_18infraware_terminal13orchestrators7command5testss_40test_execute_command_with_stderr_success
FN:126,_RNCNvMNtNtCs9VvCb0vlg4r_18infraware_terminal13orchestrators7commandNtB4_19CommandOrchestrator19execute_and_display0B8_
FN:214,_RNCNCNvNtNtNtCs9VvCb0vlg4r_18infraware_terminal13orchestrators7command5testss_27test_execute_simple_command00Bb_
FN:316,_RNCNCNvNtNtNtCs9VvCb0vlg4r_18infraware_terminal13orchestrators7command5testss_32test_execute_nonexistent_command00Bb_
FN:238,_RNCNCNvNtNtNtCs9VvCb0vlg4r_18infraware_terminal13orchestrators7command5testss_33test_execute_command_with_failure00Bb_
FN:262,_RNCNCNvNtNtNtCs9VvCb0vlg4r_18infraware_terminal13orchestrators7command5testss_40test_execute_command_with_stderr_success00Bb_
FN:186,_RNCNvNtNtNtCs9VvCb0vlg4r_18infraware_terminal13orchestrators7command5testss_22test_command_not_found0B9_
FN:198,_RNCNvNtNtNtCs9VvCb0vlg4r_18infraware_terminal13orchestrators7command5testss_27test_execute_simple_command0B9_
FN:357,_RNCNvNtNtNtCs9VvCb0vlg4r_18infraware_terminal13orchestrators7command5testss_28test_exit_code_2_shows_error0B9_
FN:299,_RNCNvNtNtNtCs9VvCb0vlg4r_18infraware_terminal13orchestrators7command5testss_32test_execute_nonexistent_command0B9_
FN:335,_RNCNvNtNtNtCs9VvCb0vlg4r_18infraware_terminal13orchestrators7command5testss_32test_grep_no_match_exit_1_benign0B9_
FN:320,_RNCNvNtNtNtCs9VvCb0vlg4r_18infraware_terminal13orchestrators7command5testss_33test_execute_command_empty_output0B9_
FN:218,_RNCNvNtNtNtCs9VvCb0vlg4r_18infraware_terminal13orchestrators7command5testss_33test_execute_command_with_failure0B9_
FN:266,_RNCNvNtNtNtCs9VvCb0vlg4r_18infraware_terminal13orchestrators7command5testss_40test_execute_command_with_stderr_failure0B9_
FN:242,_RNCNvNtNtNtCs9VvCb0vlg4r_18infraware_terminal13orchestrators7command5testss_40test_execute_command_with_stderr_success0B9_
FNDA:0,_RNvMNtNtCskvicDDTzzc8_18infraware_terminal13orchestrators7commandNtB2_19CommandOrchestrator3new
FNDA:0,_RNvMNtNtCskvicDDTzzc8_18infraware_terminal13orchestrators7commandNtB2_19CommandOrchestrator14handle_command
FNDA:0,_RNvMNtNtCskvicDDTzzc8_18infraware_terminal13orchestrators7commandNtB2_19CommandOrchestrator17is_benign_failure
FNDA:0,_RNvMNtNtCskvicDDTzzc8_18infraware_terminal13orchestrators7commandNtB2_19CommandOrchestrator19execute_and_display
FNDA:0,_RNvMNtNtCskvicDDTzzc8_18infraware_terminal13orchestrators7commandNtB2_19CommandOrchestrator20handle_clear_command
FNDA:0,_RNvMNtNtCskvicDDTzzc8_18infraware_terminal13orchestrators7commandNtB2_19CommandOrchestrator24handle_command_not_found
FNDA:0,_RNvMNtNtCskvicDDTzzc8_18infraware_terminal13orchestrators7commandNtB2_19CommandOrchestrator29handle_reload_aliases_command
FNDA:0,_RNCNvMNtNtCskvicDDTzzc8_18infraware_terminal13orchestrators7commandNtB4_19CommandOrchestrator14handle_command0B8_
FNDA:0,_RNCNvMNtNtCskvicDDTzzc8_18infraware_terminal13orchestrators7commandNtB4_19CommandOrchestrator19execute_and_display0B8_
FNDA:0,_RNCNvMNtNtCskvicDDTzzc8_18infraware_terminal13orchestrators7commandNtB4_19CommandOrchestrator29handle_reload_aliases_command0B8_
FNDA:0,_RNCNvMNtNtCs9VvCb0vlg4r_18infraware_terminal13orchestrators7commandNtB4_19CommandOrchestrator14handle_command0B8_
FNDA:0,_RNCNvMNtNtCs9VvCb0vlg4r_18infraware_terminal13orchestrators7commandNtB4_19CommandOrchestrator29handle_reload_aliases_command0B8_
FNDA:0,_RNvMNtNtCs9VvCb0vlg4r_18infraware_terminal13orchestrators7commandNtB2_19CommandOrchestrator14handle_command
FNDA:0,_RNvMNtNtCs9VvCb0vlg4r_18infraware_terminal13orchestrators7commandNtB2_19CommandOrchestrator20handle_clear_command
FNDA:0,_RNvMNtNtCs9VvCb0vlg4r_18infraware_terminal13orchestrators7commandNtB2_19CommandOrchestrator29handle_reload_aliases_command
FNDA:8,_RNvMNtNtCs9VvCb0vlg4r_18infraware_terminal13orchestrators7commandNtB2_19CommandOrchestrator17is_benign_failure
FNDA:8,_RNvMNtNtCs9VvCb0vlg4r_18infraware_terminal13orchestrators7commandNtB2_19CommandOrchestrator19execute_and_display
FNDA:1,_RNvMNtNtCs9VvCb0vlg4r_18infraware_terminal13orchestrators7commandNtB2_19CommandOrchestrator24handle_command_not_found
FNDA:11,_RNvMNtNtCs9VvCb0vlg4r_18infraware_terminal13orchestrators7commandNtB2_19CommandOrchestrator3new
FNDA:1,_RNvNtNtNtCs9VvCb0vlg4r_18infraware_terminal13orchestrators7command5testss_22test_command_not_found
FNDA:1,_RNvNtNtNtCs9VvCb0vlg4r_18infraware_terminal13orchestrators7command5testss_22test_is_benign_failure
FNDA:1,_RNvNtNtNtCs9VvCb0vlg4r_18infraware_terminal13orchestrators7command5testss_23test_orchestrator_debug
FNDA:1,_RNvNtNtNtCs9VvCb0vlg4r_18infraware_terminal13orchestrators7command5testss_25test_orchestrator_default
FNDA:1,_RNvNtNtNtCs9VvCb0vlg4r_18infraware_terminal13orchestrators7command5testss_27test_execute_simple_command
FNDA:1,_RNvNtNtNtCs9VvCb0vlg4r_18infraware_terminal13orchestrators7command5testss_28test_exit_code_2_shows_error
FNDA:1,_RNvNtNtNtCs9VvCb0vlg4r_18infraware_terminal13orchestrators7command5testss_32test_execute_nonexistent_command
FNDA:1,_RNvNtNtNtCs9VvCb0vlg4r_18infraware_terminal13orchestrators7command5testss_32test_grep_no_match_exit_1_benign
FNDA:1,_RNvNtNtNtCs9VvCb0vlg4r_18infraware_terminal13orchestrators7command5testss_33test_execute_command_empty_output
FNDA:1,_RNvNtNtNtCs9VvCb0vlg4r_18infraware_terminal13orchestrators7command5testss_33test_execute_command_with_failure
FNDA:1,_RNvNtNtNtCs9VvCb0vlg4r_18infraware_terminal13orchestrators7command5testss_40test_execute_command_with_stderr_failure
FNDA:1,_RNvNtNtNtCs9VvCb0vlg4r_18infraware_terminal13orchestrators7command5testss_40test_execute_command_with_stderr_success
FNDA:8,_RNCNvMNtNtCs9VvCb0vlg4r_18infraware_terminal13orchestrators7commandNtB4_19CommandOrchestrator19execute_and_display0B8_
FNDA:1,_RNCNCNvNtNtNtCs9VvCb0vlg4r_18infraware_terminal13orchestrators7command5testss_27test_execute_simple_command00Bb_
FNDA:1,_RNCNCNvNtNtNtCs9VvCb0vlg4r_18infraware_terminal13orchestrators7command5testss_32test_execute_nonexistent_command00Bb_
FNDA:0,_RNCNCNvNtNtNtCs9VvCb0vlg4r_18infraware_terminal13orchestrators7command5testss_33test_execute_command_with_failure00Bb_
FNDA:1,_RNCNCNvNtNtNtCs9VvCb0vlg4r_18infraware_terminal13orchestrators7command5testss_40test_execute_command_with_stderr_success00Bb_
FNDA:1,_RNCNvNtNtNtCs9VvCb0vlg4r_18infraware_terminal13orchestrators7command5testss_22test_command_not_found0B9_
FNDA:1,_RNCNvNtNtNtCs9VvCb0vlg4r_18infraware_terminal13orchestrators7command5testss_27test_execute_simple_command0B9_
FNDA:1,_RNCNvNtNtNtCs9VvCb0vlg4r_18infraware_terminal13orchestrators7command5testss_28test_exit_code_2_shows_error0B9_
FNDA:1,_RNCNvNtNtNtCs9VvCb0vlg4r_18infraware_terminal13orchestrators7command5testss_32test_execute_nonexistent_command0B9_
FNDA:1,_RNCNvNtNtNtCs9VvCb0vlg4r_18infraware_terminal13orchestrators7command5testss_32test_grep_no_match_exit_1_benign0B9_
FNDA:1,_RNCNvNtNtNtCs9VvCb0vlg4r_18infraware_terminal13orchestrators7command5testss_33test_execute_command_empty_output0B9_
FNDA:1,_RNCNvNtNtNtCs9VvCb0vlg4r_18infraware_terminal13orchestrators7command5testss_33test_execute_command_with_failure0B9_
FNDA:1,_RNCNvNtNtNtCs9VvCb0vlg4r_18infraware_terminal13orchestrators7command5testss_40test_execute_command_with_stderr_failure0B9_
FNDA:1,_RNCNvNtNtNtCs9VvCb0vlg4r_18infraware_terminal13orchestrators7command5testss_40test_execute_command_with_stderr_success0B9_
FNF:35
FNH:29
DA:22,11
DA:23,11
DA:24,11
DA:40,0
DA:41,0
DA:42,0
DA:43,0
DA:44,0
DA:45,0
DA:46,0
DA:47,0
DA:49,0
DA:50,0
DA:51,0
DA:54,0
DA:55,0
DA:56,0
DA:59,0
DA:60,0
DA:61,0
DA:62,0
DA:65,0
DA:66,0
DA:67,0
DA:70,0
DA:72,0
DA:74,0
DA:75,0
DA:76,0
DA:82,0
DA:85,0
DA:89,0
DA:91,0
DA:92,0
DA:93,0
DA:94,0
DA:95,0
DA:96,0
DA:97,0
DA:98,0
DA:99,0
DA:100,0
DA:101,0
DA:102,0
DA:103,0
DA:104,0
DA:105,0
DA:108,0
DA:109,0
DA:112,1
DA:113,1
DA:114,1
DA:115,1
DA:117,1
DA:120,8
DA:121,8
DA:122,8
DA:123,8
DA:124,8
DA:125,8
DA:126,8
DA:127,8
DA:128,7
DA:130,7
DA:131,1
DA:132,1
DA:133,1
DA:134,6
DA:137,7
DA:138,2
DA:139,2
DA:140,1
DA:141,1
DA:142,1
DA:143,1
DA:144,1
DA:145,1
DA:147,5
DA:152,7
DA:153,1
DA:154,6
DA:156,1
DA:157,1
DA:158,1
DA:161,8
DA:162,8
DA:173,8
DA:176,8
DA:177,8
DA:186,1
DA:187,1
DA:188,1
DA:190,1
DA:192,1
DA:193,1
DA:194,1
DA:195,1
DA:198,1
DA:199,1
DA:200,1
DA:203,1
DA:204,1
DA:205,1
DA:206,1
DA:209,1
DA:210,1
DA:211,1
DA:212,1
DA:213,1
DA:214,1
DA:215,1
DA:218,1
DA:219,1
DA:220,1
DA:223,1
DA:224,1
DA:225,1
DA:226,1
DA:227,1
DA:228,1
DA:229,1
DA:230,1
DA:231,1
DA:234,1
DA:235,1
DA:236,1
DA:237,1
DA:238,1
DA:239,1
DA:242,1
DA:243,1
DA:244,1
DA:247,1
DA:248,1
DA:249,1
DA:250,1
DA:251,1
DA:252,1
DA:253,1
DA:254,1
DA:255,1
DA:258,1
DA:259,1
DA:260,1
DA:261,1
DA:262,1
DA:263,1
DA:266,1
DA:267,1
DA:268,1
DA:271,1
DA:272,1
DA:273,1
DA:274,1
DA:275,1
DA:276,1
DA:277,1
DA:278,1
DA:279,1
DA:282,1
DA:283,1
DA:284,1
DA:287,1
DA:288,1
DA:289,1
DA:292,1
DA:293,1
DA:294,1
DA:295,1
DA:296,1
DA:299,1
DA:300,1
DA:301,1
DA:306,1
DA:307,1
DA:308,1
DA:311,1
DA:312,1
DA:313,1
DA:314,1
DA:315,1
DA:316,1
DA:317,1
DA:320,1
DA:321,1
DA:322,1
DA:325,1
DA:326,1
DA:327,1
DA:328,1
DA:332,1
DA:335,1
DA:336,1
DA:337,1
DA:340,1
DA:341,1
DA:342,1
DA:343,1
DA:344,1
DA:345,1
DA:346,1
DA:347,1
DA:348,1
DA:352,1
DA:353,1
DA:354,1
DA:357,1
DA:358,1
DA:359,1
DA:362,1
DA:363,1
DA:364,1
DA:365,1
DA:366,1
DA:367,1
DA:368,1
DA:369,1
DA:370,1
DA:373,1
DA:374,1
DA:375,1
DA:378,1
DA:379,1
DA:382,1
DA:383,1
DA:384,1
DA:385,1
DA:386,1
DA:387,1
DA:390,1
DA:391,1
DA:392,1
DA:393,1
DA:394,1
DA:395,1
DA:398,1
DA:399,1
DA:400,1
DA:401,1
DA:402,1
DA:403,1
DA:406,1
DA:407,1
DA:408,1
DA:409,1
DA:410,1
DA:411,1
DA:412,1
BRF:0
BRH:0
LF:292
LH:243
end_of_record
SF:/home/crist/infraware-terminal/terminal-app/src/orchestrators/natural_language.rs
FN:50,_RNCNvMs_NtNtCskvicDDTzzc8_18infraware_terminal13orchestrators16natural_languageNtB6_27NaturalLanguageOrchestrator12handle_query0Ba_
FN:21,_RNvXNtNtCskvicDDTzzc8_18infraware_terminal13orchestrators16natural_languageNtB2_27NaturalLanguageOrchestratorNtNtCs5GmCzIpY9Qj_4core3fmt5Debug3fmt
FN:81,_RNvMs_NtNtCskvicDDTzzc8_18infraware_terminal13orchestrators16natural_languageNtB4_27NaturalLanguageOrchestrator12handle_error
FN:45,_RNvMs_NtNtCskvicDDTzzc8_18infraware_terminal13orchestrators16natural_languageNtB4_27NaturalLanguageOrchestrator12handle_query
FN:71,_RNvMs_NtNtCskvicDDTzzc8_18infraware_terminal13orchestrators16natural_languageNtB4_27NaturalLanguageOrchestrator14handle_success
FN:31,_RNvMs_NtNtCskvicDDTzzc8_18infraware_terminal13orchestrators16natural_languageNtB4_27NaturalLanguageOrchestrator3new
FN:50,_RNCNvMs_NtNtCs9VvCb0vlg4r_18infraware_terminal13orchestrators16natural_languageNtB6_27NaturalLanguageOrchestrator12handle_query0Ba_
FN:45,_RNvMs_NtNtCs9VvCb0vlg4r_18infraware_terminal13orchestrators16natural_languageNtB4_27NaturalLanguageOrchestrator12handle_query
FN:115,_RNCNCNvNtNtNtCs9VvCb0vlg4r_18infraware_terminal13orchestrators16natural_language5testss_25test_handle_query_success00Bb_
FN:201,_RNCNCNvNtNtNtCs9VvCb0vlg4r_18infraware_terminal13orchestrators16natural_language5testss_41test_handle_error_removes_waiting_message00Bb_
FN:181,_RNCNCNvNtNtNtCs9VvCb0vlg4r_18infraware_terminal13orchestrators16natural_language5testss_43test_handle_success_removes_waiting_message00Bb_
FN:119,_RNCNvNtNtNtCs9VvCb0vlg4r_18infraware_terminal13orchestrators16natural_language5testss_23test_handle_query_error0B9_
FN:100,_RNCNvNtNtNtCs9VvCb0vlg4r_18infraware_terminal13orchestrators16natural_language5testss_25test_handle_query_success0B9_
FN:152,_RNCNvNtNtNtCs9VvCb0vlg4r_18infraware_terminal13orchestrators16natural_language5testss_33test_handle_success_with_markdown0B9_
FN:185,_RNCNvNtNtNtCs9VvCb0vlg4r_18infraware_terminal13orchestrators16natural_language5testss_41test_handle_error_removes_waiting_message0B9_
FN:166,_RNCNvNtNtNtCs9VvCb0vlg4r_18infraware_terminal13orchestrators16natural_language5testss_43test_handle_success_removes_waiting_message0B9_
FN:205,_RNCNvNtNtNtCs9VvCb0vlg4r_18infraware_terminal13orchestrators16natural_language5testss_43test_handle_success_with_multiline_response0B9_
FN:136,_RNvNtNtNtCs9VvCb0vlg4r_18infraware_terminal13orchestrators16natural_language5testss_21test_orchestrator_new
FN:119,_RNvNtNtNtCs9VvCb0vlg4r_18infraware_terminal13orchestrators16natural_language5testss_23test_handle_query_error
FN:143,_RNvNtNtNtCs9VvCb0vlg4r_18infraware_terminal13orchestrators16natural_language5testss_23test_orchestrator_debug
FN:100,_RNvNtNtNtCs9VvCb0vlg4r_18infraware_terminal13orchestrators16natural_language5testss_25test_handle_query_success
FN:152,_RNvNtNtNtCs9VvCb0vlg4r_18infraware_terminal13orchestrators16natural_language5testss_33test_handle_success_with_markdown
FN:185,_RNvNtNtNtCs9VvCb0vlg4r_18infraware_terminal13orchestrators16natural_language5testss_41test_handle_error_removes_waiting_message
FN:166,_RNvNtNtNtCs9VvCb0vlg4r_18infraware_terminal13orchestrators16natural_language5testss_43test_handle_success_removes_waiting_message
FN:205,_RNvNtNtNtCs9VvCb0vlg4r_18infraware_terminal13orchestrators16natural_language5testss_43test_handle_success_with_multiline_response
FN:81,_RNvMs_NtNtCs9VvCb0vlg4r_18infraware_terminal13orchestrators16natural_languageNtB4_27NaturalLanguageOrchestrator12handle_error
FN:71,_RNvMs_NtNtCs9VvCb0vlg4r_18infraware_terminal13orchestrators16natural_languageNtB4_27NaturalLanguageOrchestrator14handle_success
FN:31,_RNvMs_NtNtCs9VvCb0vlg4r_18infraware_terminal13orchestrators16natural_languageNtB4_27NaturalLanguageOrchestrator3new
FN:21,_RNvXNtNtCs9VvCb0vlg4r_18infraware_terminal13orchestrators16natural_languageNtB2_27NaturalLanguageOrchestratorNtNtCs5GmCzIpY9Qj_4core3fmt5Debug3fmt
FNDA:0,_RNCNvMs_NtNtCskvicDDTzzc8_18infraware_terminal13orchestrators16natural_languageNtB6_27NaturalLanguageOrchestrator12handle_query0Ba_
FNDA:0,_RNvXNtNtCskvicDDTzzc8_18infraware_terminal13orchestrators16natural_languageNtB2_27NaturalLanguageOrchestratorNtNtCs5GmCzIpY9Qj_4core3fmt5Debug3fmt
FNDA:0,_RNvMs_NtNtCskvicDDTzzc8_18infraware_terminal13orchestrators16natural_languageNtB4_27NaturalLanguageOrchestrator12handle_error
FNDA:0,_RNvMs_NtNtCskvicDDTzzc8_18infraware_terminal13orchestrators16natural_languageNtB4_27NaturalLanguageOrchestrator12handle_query
FNDA:0,_RNvMs_NtNtCskvicDDTzzc8_18infraware_terminal13orchestrators16natural_languageNtB4_27NaturalLanguageOrchestrator14handle_success
FNDA:0,_RNvMs_NtNtCskvicDDTzzc8_18infraware_terminal13orchestrators16natural_languageNtB4_27NaturalLanguageOrchestrator3new
FNDA:0,_RNCNvMs_NtNtCs9VvCb0vlg4r_18infraware_terminal13orchestrators16natural_languageNtB6_27NaturalLanguageOrchestrator12handle_query0Ba_
FNDA:0,_RNvMs_NtNtCs9VvCb0vlg4r_18infraware_terminal13orchestrators16natural_languageNtB4_27NaturalLanguageOrchestrator12handle_query
FNDA:1,_RNCNCNvNtNtNtCs9VvCb0vlg4r_18infraware_terminal13orchestrators16natural_language5testss_25test_handle_query_success00Bb_
FNDA:1,_RNCNCNvNtNtNtCs9VvCb0vlg4r_18infraware_terminal13orchestrators16natural_language5testss_41test_handle_error_removes_waiting_message00Bb_
FNDA:1,_RNCNCNvNtNtNtCs9VvCb0vlg4r_18infraware_terminal13orchestrators16natural_language5testss_43test_handle_success_removes_waiting_message00Bb_
FNDA:1,_RNCNvNtNtNtCs9VvCb0vlg4r_18infraware_terminal13orchestrators16natural_language5testss_23test_handle_query_error0B9_
FNDA:1,_RNCNvNtNtNtCs9VvCb0vlg4r_18infraware_terminal13orchestrators16natural_language5testss_25test_handle_query_success0B9_
FNDA:1,_RNCNvNtNtNtCs9VvCb0vlg4r_18infraware_terminal13orchestrators16natural_language5testss_33test_handle_success_with_markdown0B9_
FNDA:1,_RNCNvNtNtNtCs9VvCb0vlg4r_18infraware_terminal13orchestrators16natural_language5testss_41test_handle_error_removes_waiting_message0B9_
FNDA:1,_RNCNvNtNtNtCs9VvCb0vlg4r_18infraware_terminal13orchestrators16natural_language5testss_43test_handle_success_removes_waiting_message0B9_
FNDA:1,_RNCNvNtNtNtCs9VvCb0vlg4r_18infraware_terminal13orchestrators16natural_language5testss_43test_handle_success_with_multiline_response0B9_
FNDA:1,_RNvNtNtNtCs9VvCb0vlg4r_18infraware_terminal13orchestrators16natural_language5testss_21test_orchestrator_new
FNDA:1,_RNvNtNtNtCs9VvCb0vlg4r_18infraware_terminal13orchestrators16natural_language5testss_23test_handle_query_error
FNDA:1,_RNvNtNtNtCs9VvCb0vlg4r_18infraware_terminal13orchestrators16natural_language5testss_23test_orchestrator_debug
FNDA:1,_RNvNtNtNtCs9VvCb0vlg4r_18infraware_terminal13orchestrators16natural_language5testss_25test_handle_query_success
FNDA:1,_RNvNtNtNtCs9VvCb0vlg4r_18infraware_terminal13orchestrators16natural_language5testss_33test_handle_success_with_markdown
FNDA:1,_RNvNtNtNtCs9VvCb0vlg4r_18infraware_terminal13orchestrators16natural_language5testss_41test_handle_error_removes_waiting_message
FNDA:1,_RNvNtNtNtCs9VvCb0vlg4r_18infraware_terminal13orchestrators16natural_language5testss_43test_handle_success_removes_waiting_message
FNDA:1,_RNvNtNtNtCs9VvCb0vlg4r_18infraware_terminal13orchestrators16natural_language5testss_43test_handle_success_with_multiline_response
FNDA:2,_RNvMs_NtNtCs9VvCb0vlg4r_18infraware_terminal13orchestrators16natural_languageNtB4_27NaturalLanguageOrchestrator12handle_error
FNDA:4,_RNvMs_NtNtCs9VvCb0vlg4r_18infraware_terminal13orchestrators16natural_languageNtB4_27NaturalLanguageOrchestrator14handle_success
FNDA:8,_RNvMs_NtNtCs9VvCb0vlg4r_18infraware_terminal13orchestrators16natural_languageNtB4_27NaturalLanguageOrchestrator3new
FNDA:1,_RNvXNtNtCs9VvCb0vlg4r_18infraware_terminal13orchestrators16natural_languageNtB2_27NaturalLanguageOrchestratorNtNtCs5GmCzIpY9Qj_4core3fmt5Debug3fmt
FNF:23
FNH:21
DA:21,1
DA:22,1
DA:23,1
DA:24,1
DA:25,1
DA:26,1
DA:31,8
DA:32,8
DA:33,8
DA:34,8
DA:35,8
DA:36,8
DA:45,0
DA:46,0
DA:47,0
DA:48,0
DA:49,0
DA:50,0
DA:52,0
DA:55,0
DA:58,0
DA:59,0
DA:60,0
DA:61,0
DA:62,0
DA:63,0
DA:64,0
DA:67,0
DA:68,0
DA:71,4
DA:73,4
DA:76,4
DA:77,4
DA:78,4
DA:81,2
DA:83,2
DA:86,2
DA:87,2
DA:90,2
DA:100,1
DA:101,1
DA:102,1
DA:103,1
DA:105,1
DA:107,1
DA:110,1
DA:111,1
DA:112,1
DA:113,1
DA:114,1
DA:115,1
DA:116,1
DA:119,1
DA:120,1
DA:121,1
DA:122,1
DA:124,1
DA:125,1
DA:127,1
DA:130,1
DA:131,1
DA:132,1
DA:133,1
DA:136,1
DA:137,1
DA:138,1
DA:139,1
DA:140,1
DA:143,1
DA:144,1
DA:145,1
DA:146,1
DA:147,1
DA:148,1
DA:149,1
DA:152,1
DA:153,1
DA:154,1
DA:155,1
DA:157,1
DA:160,1
DA:162,1
DA:163,1
DA:166,1
DA:167,1
DA:168,1
DA:169,1
DA:171,1
DA:172,1
DA:174,1
DA:177,1
DA:178,1
DA:179,1
DA:180,1
DA:181,1
DA:182,1
DA:185,1
DA:186,1
DA:187,1
DA:188,1
DA:190,1
DA:191,1
DA:193,1
DA:194,1
DA:197,1
DA:198,1
DA:199,1
DA:200,1
DA:201,1
DA:202,1
DA:205,1
DA:206,1
DA:207,1
DA:208,1
DA:210,1
DA:212,1
DA:215,1
DA:216,1
BRF:0
BRH:0
LF:146
LH:128
end_of_record
SF:/home/crist/infraware-terminal/terminal-app/src/orchestrators/tab_completion.rs
FN:19,_RNvMNtNtCskvicDDTzzc8_18infraware_terminal13orchestrators14tab_completionNtB2_20TabCompletionHandler3new
FN:30,_RNvMNtNtCskvicDDTzzc8_18infraware_terminal13orchestrators14tab_completionNtB2_20TabCompletionHandler21handle_tab_completion
FN:46,_RNvMNtNtCskvicDDTzzc8_18infraware_terminal13orchestrators14tab_completionNtB2_20TabCompletionHandler24handle_single_completion
FN:52,_RNvMNtNtCskvicDDTzzc8_18infraware_terminal13orchestrators14tab_completionNtB2_20TabCompletionHandler27handle_multiple_completions
FN:77,_RNvNtNtNtCs9VvCb0vlg4r_18infraware_terminal13orchestrators14tab_completion5testss_22test_single_completion
FN:89,_RNvNtNtNtCs9VvCb0vlg4r_18infraware_terminal13orchestrators14tab_completion5testss_25test_multiple_completions
FN:30,_RNvMNtNtCs9VvCb0vlg4r_18infraware_terminal13orchestrators14tab_completionNtB2_20TabCompletionHandler21handle_tab_completion
FN:46,_RNvMNtNtCs9VvCb0vlg4r_18infraware_terminal13orchestrators14tab_completionNtB2_20TabCompletionHandler24handle_single_completion
FN:52,_RNvMNtNtCs9VvCb0vlg4r_18infraware_terminal13orchestrators14tab_completionNtB2_20TabCompletionHandler27handle_multiple_completions
FN:19,_RNvMNtNtCs9VvCb0vlg4r_18infraware_terminal13orchestrators14tab_completionNtB2_20TabCompletionHandler3new
FNDA:0,_RNvMNtNtCskvicDDTzzc8_18infraware_terminal13orchestrators14tab_completionNtB2_20TabCompletionHandler3new
FNDA:0,_RNvMNtNtCskvicDDTzzc8_18infraware_terminal13orchestrators14tab_completionNtB2_20TabCompletionHandler21handle_tab_completion
FNDA:0,_RNvMNtNtCskvicDDTzzc8_18infraware_terminal13orchestrators14tab_completionNtB2_20TabCompletionHandler24handle_single_completion
FNDA:0,_RNvMNtNtCskvicDDTzzc8_18infraware_terminal13orchestrators14tab_completionNtB2_20TabCompletionHandler27handle_multiple_completions
FNDA:1,_RNvNtNtNtCs9VvCb0vlg4r_18infraware_terminal13orchestrators14tab_completion5testss_22test_single_completion
FNDA:1,_RNvNtNtNtCs9VvCb0vlg4r_18infraware_terminal13orchestrators14tab_completion5testss_25test_multiple_completions
FNDA:0,_RNvMNtNtCs9VvCb0vlg4r_18infraware_terminal13orchestrators14tab_completionNtB2_20TabCompletionHandler21handle_tab_completion
FNDA:1,_RNvMNtNtCs9VvCb0vlg4r_18infraware_terminal13orchestrators14tab_completionNtB2_20TabCompletionHandler24handle_single_completion
FNDA:1,_RNvMNtNtCs9VvCb0vlg4r_18infraware_terminal13orchestrators14tab_completionNtB2_20TabCompletionHandler27handle_multiple_completions
FNDA:2,_RNvMNtNtCs9VvCb0vlg4r_18infraware_terminal13orchestrators14tab_completionNtB2_20TabCompletionHandler3new
FNF:6
FNH:5
DA:19,2
DA:20,2
DA:21,2
DA:30,0
DA:31,0
DA:32,0
DA:34,0
DA:35,0
DA:36,0
DA:38,0
DA:39,0
DA:40,0
DA:41,0
DA:42,0
DA:43,0
DA:46,1
DA:48,1
DA:49,1
DA:52,1
DA:53,1
DA:54,1
DA:55,1
DA:56,1
DA:57,1
DA:59,1
DA:60,3
DA:61,2
DA:62,2
DA:65,1
DA:66,1
DA:67,1
DA:68,1
DA:69,1
DA:77,1
DA:78,1
DA:79,1
DA:80,1
DA:82,1
DA:84,1
DA:85,1
DA:86,1
DA:89,1
DA:90,1
DA:91,1
DA:92,1
DA:94,1
DA:96,1
DA:99,1
DA:100,1
DA:101,1
BRF:0
BRH:0
LF:50
LH:38
end_of_record
SF:/home/crist/infraware-terminal/terminal-app/src/terminal/buffers.rs
FN:97,_RNvMNtNtCsgbM7bOyfJDi_18infraware_terminal8terminal7buffersNtB2_12OutputBuffer11scroll_down
FN:104,_RNvMNtNtCsgbM7bOyfJDi_18infraware_terminal8terminal7buffersNtB2_12OutputBuffer14trim_if_needed
FN:85,_RNvMNtNtCsgbM7bOyfJDi_18infraware_terminal8terminal7buffersNtB2_12OutputBuffer15scroll_position
FN:113,_RNvMNtNtCsgbM7bOyfJDi_18infraware_terminal8terminal7buffersNtB2_12OutputBuffer21auto_scroll_to_bottom
FN:58,_RNvMNtNtCsgbM7bOyfJDi_18infraware_terminal8terminal7buffersNtB2_12OutputBuffer3new
FN:118,_RNvMNtNtCsgbM7bOyfJDi_18infraware_terminal8terminal7buffersNtB2_12OutputBuffer3pop
FN:128,_RNvMNtNtCsgbM7bOyfJDi_18infraware_terminal8terminal7buffersNtB2_12OutputBuffer5clear
FN:80,_RNvMNtNtCsgbM7bOyfJDi_18infraware_terminal8terminal7buffersNtB2_12OutputBuffer5lines
FN:66,_RNvMNtNtCsgbM7bOyfJDi_18infraware_terminal8terminal7buffersNtB2_12OutputBuffer8add_line
FN:73,_RNvMNtNtCsgbM7bOyfJDi_18infraware_terminal8terminal7buffersNtB2_12OutputBuffer9add_lines
FN:90,_RNvMNtNtCsgbM7bOyfJDi_18infraware_terminal8terminal7buffersNtB2_12OutputBuffer9scroll_up
FN:196,_RNvMs0_NtNtCsgbM7bOyfJDi_18infraware_terminal8terminal7buffersNtB5_11InputBuffer11delete_char
FN:177,_RNvMs0_NtNtCsgbM7bOyfJDi_18infraware_terminal8terminal7buffersNtB5_11InputBuffer11insert_char
FN:163,_RNvMs0_NtNtCsgbM7bOyfJDi_18infraware_terminal8terminal7buffersNtB5_11InputBuffer15cursor_position
FN:168,_RNvMs0_NtNtCsgbM7bOyfJDi_18infraware_terminal8terminal7buffersNtB5_11InputBuffer16char_to_byte_idx
FN:205,_RNvMs0_NtNtCsgbM7bOyfJDi_18infraware_terminal8terminal7buffersNtB5_11InputBuffer16move_cursor_left
FN:212,_RNvMs0_NtNtCsgbM7bOyfJDi_18infraware_terminal8terminal7buffersNtB5_11InputBuffer17move_cursor_right
FN:150,_RNvMs0_NtNtCsgbM7bOyfJDi_18infraware_terminal8terminal7buffersNtB5_11InputBuffer3new
FN:232,_RNvMs0_NtNtCsgbM7bOyfJDi_18infraware_terminal8terminal7buffersNtB5_11InputBuffer4take
FN:158,_RNvMs0_NtNtCsgbM7bOyfJDi_18infraware_terminal8terminal7buffersNtB5_11InputBuffer4text
FN:220,_RNvMs0_NtNtCsgbM7bOyfJDi_18infraware_terminal8terminal7buffersNtB5_11InputBuffer5clear
FN:226,_RNvMs0_NtNtCsgbM7bOyfJDi_18infraware_terminal8terminal7buffersNtB5_11InputBuffer8set_text
FN:307,_RNvMs2_NtNtCsgbM7bOyfJDi_18infraware_terminal8terminal7buffersNtB5_14CommandHistory14reset_position
FN:261,_RNvMs2_NtNtCsgbM7bOyfJDi_18infraware_terminal8terminal7buffersNtB5_14CommandHistory3add
FN:312,_RNvMs2_NtNtCsgbM7bOyfJDi_18infraware_terminal8terminal7buffersNtB5_14CommandHistory3all
FN:253,_RNvMs2_NtNtCsgbM7bOyfJDi_18infraware_terminal8terminal7buffersNtB5_14CommandHistory3new
FN:287,_RNvMs2_NtNtCsgbM7bOyfJDi_18infraware_terminal8terminal7buffersNtB5_14CommandHistory4next
FN:270,_RNvMs2_NtNtCsgbM7bOyfJDi_18infraware_terminal8terminal7buffersNtB5_14CommandHistory8previous
FN:239,_RNvXs1_NtNtCsgbM7bOyfJDi_18infraware_terminal8terminal7buffersNtB5_11InputBufferNtNtCs5GmCzIpY9Qj_4core7default7Default7default
FN:318,_RNvXs3_NtNtCsgbM7bOyfJDi_18infraware_terminal8terminal7buffersNtB5_14CommandHistoryNtNtCs5GmCzIpY9Qj_4core7default7Default7default
FN:135,_RNvXs_NtNtCsgbM7bOyfJDi_18infraware_terminal8terminal7buffersNtB4_12OutputBufferNtNtCs5GmCzIpY9Qj_4core7default7Default7default
FN:282,_RNCNvMs2_NtNtCsgbM7bOyfJDi_18infraware_terminal8terminal7buffersNtB7_14CommandHistory8previous0Bb_
FN:85,_RNvMNtNtCskvicDDTzzc8_18infraware_terminal8terminal7buffersNtB2_12OutputBuffer15scroll_position
FN:239,_RNvXs1_NtNtCskvicDDTzzc8_18infraware_terminal8terminal7buffersNtB5_11InputBufferNtNtCs5GmCzIpY9Qj_4core7default7Default7default
FN:318,_RNvXs3_NtNtCskvicDDTzzc8_18infraware_terminal8terminal7buffersNtB5_14CommandHistoryNtNtCs5GmCzIpY9Qj_4core7default7Default7default
FN:135,_RNvXs_NtNtCskvicDDTzzc8_18infraware_terminal8terminal7buffersNtB4_12OutputBufferNtNtCs5GmCzIpY9Qj_4core7default7Default7default
FN:97,_RNvMNtNtCskvicDDTzzc8_18infraware_terminal8terminal7buffersNtB2_12OutputBuffer11scroll_down
FN:104,_RNvMNtNtCskvicDDTzzc8_18infraware_terminal8terminal7buffersNtB2_12OutputBuffer14trim_if_needed
FN:113,_RNvMNtNtCskvicDDTzzc8_18infraware_terminal8terminal7buffersNtB2_12OutputBuffer21auto_scroll_to_bottom
FN:58,_RNvMNtNtCskvicDDTzzc8_18infraware_terminal8terminal7buffersNtB2_12OutputBuffer3new
FN:118,_RNvMNtNtCskvicDDTzzc8_18infraware_terminal8terminal7buffersNtB2_12OutputBuffer3pop
FN:128,_RNvMNtNtCskvicDDTzzc8_18infraware_terminal8terminal7buffersNtB2_12OutputBuffer5clear
FN:80,_RNvMNtNtCskvicDDTzzc8_18infraware_terminal8terminal7buffersNtB2_12OutputBuffer5lines
FN:66,_RNvMNtNtCskvicDDTzzc8_18infraware_terminal8terminal7buffersNtB2_12OutputBuffer8add_line
FN:73,_RNvMNtNtCskvicDDTzzc8_18infraware_terminal8terminal7buffersNtB2_12OutputBuffer9add_lines
FN:90,_RNvMNtNtCskvicDDTzzc8_18infraware_terminal8terminal7buffersNtB2_12OutputBuffer9scroll_up
FN:196,_RNvMs0_NtNtCskvicDDTzzc8_18infraware_terminal8terminal7buffersNtB5_11InputBuffer11delete_char
FN:177,_RNvMs0_NtNtCskvicDDTzzc8_18infraware_terminal8terminal7buffersNtB5_11InputBuffer11insert_char
FN:163,_RNvMs0_NtNtCskvicDDTzzc8_18infraware_terminal8terminal7buffersNtB5_11InputBuffer15cursor_position
FN:168,_RNvMs0_NtNtCskvicDDTzzc8_18infraware_terminal8terminal7buffersNtB5_11InputBuffer16char_to_byte_idx
FN:205,_RNvMs0_NtNtCskvicDDTzzc8_18infraware_terminal8terminal7buffersNtB5_11InputBuffer16move_cursor_left
FN:212,_RNvMs0_NtNtCskvicDDTzzc8_18infraware_terminal8terminal7buffersNtB5_11InputBuffer17move_cursor_right
FN:150,_RNvMs0_NtNtCskvicDDTzzc8_18infraware_terminal8terminal7buffersNtB5_11InputBuffer3new
FN:232,_RNvMs0_NtNtCskvicDDTzzc8_18infraware_terminal8terminal7buffersNtB5_11InputBuffer4take
FN:158,_RNvMs0_NtNtCskvicDDTzzc8_18infraware_terminal8terminal7buffersNtB5_11InputBuffer4text
FN:220,_RNvMs0_NtNtCskvicDDTzzc8_18infraware_terminal8terminal7buffersNtB5_11InputBuffer5clear
FN:226,_RNvMs0_NtNtCskvicDDTzzc8_18infraware_terminal8terminal7buffersNtB5_11InputBuffer8set_text
FN:307,_RNvMs2_NtNtCskvicDDTzzc8_18infraware_terminal8terminal7buffersNtB5_14CommandHistory14reset_position
FN:261,_RNvMs2_NtNtCskvicDDTzzc8_18infraware_terminal8terminal7buffersNtB5_14CommandHistory3add
FN:312,_RNvMs2_NtNtCskvicDDTzzc8_18infraware_terminal8terminal7buffersNtB5_14CommandHistory3all
FN:253,_RNvMs2_NtNtCskvicDDTzzc8_18infraware_terminal8terminal7buffersNtB5_14CommandHistory3new
FN:287,_RNvMs2_NtNtCskvicDDTzzc8_18infraware_terminal8terminal7buffersNtB5_14CommandHistory4next
FN:270,_RNvMs2_NtNtCskvicDDTzzc8_18infraware_terminal8terminal7buffersNtB5_14CommandHistory8previous
FN:282,_RNCNvMs2_NtNtCskvicDDTzzc8_18infraware_terminal8terminal7buffersNtB7_14CommandHistory8previous0Bb_
FN:128,_RNvMNtNtCs9VvCb0vlg4r_18infraware_terminal8terminal7buffersNtB2_12OutputBuffer5clear
FN:232,_RNvMs0_NtNtCs9VvCb0vlg4r_18infraware_terminal8terminal7buffersNtB5_11InputBuffer4take
FN:220,_RNvMs0_NtNtCs9VvCb0vlg4r_18infraware_terminal8terminal7buffersNtB5_11InputBuffer5clear
FN:307,_RNvMs2_NtNtCs9VvCb0vlg4r_18infraware_terminal8terminal7buffersNtB5_14CommandHistory14reset_position
FN:239,_RNvXs1_NtNtCs9VvCb0vlg4r_18infraware_terminal8terminal7buffersNtB5_11InputBufferNtNtCs5GmCzIpY9Qj_4core7default7Default7default
FN:318,_RNvXs3_NtNtCs9VvCb0vlg4r_18infraware_terminal8terminal7buffersNtB5_14CommandHistoryNtNtCs5GmCzIpY9Qj_4core7default7Default7default
FN:135,_RNvXs_NtNtCs9VvCb0vlg4r_18infraware_terminal8terminal7buffersNtB4_12OutputBufferNtNtCs5GmCzIpY9Qj_4core7default7Default7default
FN:97,_RNvMNtNtCs9VvCb0vlg4r_18infraware_terminal8terminal7buffersNtB2_12OutputBuffer11scroll_down
FN:104,_RNvMNtNtCs9VvCb0vlg4r_18infraware_terminal8terminal7buffersNtB2_12OutputBuffer14trim_if_needed
FN:85,_RNvMNtNtCs9VvCb0vlg4r_18infraware_terminal8terminal7buffersNtB2_12OutputBuffer15scroll_position
FN:113,_RNvMNtNtCs9VvCb0vlg4r_18infraware_terminal8terminal7buffersNtB2_12OutputBuffer21auto_scroll_to_bottom
FN:58,_RNvMNtNtCs9VvCb0vlg4r_18infraware_terminal8terminal7buffersNtB2_12OutputBuffer3new
FN:118,_RNvMNtNtCs9VvCb0vlg4r_18infraware_terminal8terminal7buffersNtB2_12OutputBuffer3pop
FN:80,_RNvMNtNtCs9VvCb0vlg4r_18infraware_terminal8terminal7buffersNtB2_12OutputBuffer5lines
FN:66,_RNvMNtNtCs9VvCb0vlg4r_18infraware_terminal8terminal7buffersNtB2_12OutputBuffer8add_line
FN:73,_RNvMNtNtCs9VvCb0vlg4r_18infraware_terminal8terminal7buffersNtB2_12OutputBuffer9add_lines
FN:90,_RNvMNtNtCs9VvCb0vlg4r_18infraware_terminal8terminal7buffersNtB2_12OutputBuffer9scroll_up
FN:196,_RNvMs0_NtNtCs9VvCb0vlg4r_18infraware_terminal8terminal7buffersNtB5_11InputBuffer11delete_char
FN:177,_RNvMs0_NtNtCs9VvCb0vlg4r_18infraware_terminal8terminal7buffersNtB5_11InputBuffer11insert_char
FN:163,_RNvMs0_NtNtCs9VvCb0vlg4r_18infraware_terminal8terminal7buffersNtB5_11InputBuffer15cursor_position
FN:168,_RNvMs0_NtNtCs9VvCb0vlg4r_18infraware_terminal8terminal7buffersNtB5_11InputBuffer16char_to_byte_idx
FN:205,_RNvMs0_NtNtCs9VvCb0vlg4r_18infraware_terminal8terminal7buffersNtB5_11InputBuffer16move_cursor_left
FN:212,_RNvMs0_NtNtCs9VvCb0vlg4r_18infraware_terminal8terminal7buffersNtB5_11InputBuffer17move_cursor_right
FN:150,_RNvMs0_NtNtCs9VvCb0vlg4r_18infraware_terminal8terminal7buffersNtB5_11InputBuffer3new
FN:158,_RNvMs0_NtNtCs9VvCb0vlg4r_18infraware_terminal8terminal7buffersNtB5_11InputBuffer4text
FN:226,_RNvMs0_NtNtCs9VvCb0vlg4r_18infraware_terminal8terminal7buffersNtB5_11InputBuffer8set_text
FN:261,_RNvMs2_NtNtCs9VvCb0vlg4r_18infraware_terminal8terminal7buffersNtB5_14CommandHistory3add
FN:312,_RNvMs2_NtNtCs9VvCb0vlg4r_18infraware_terminal8terminal7buffersNtB5_14CommandHistory3all
FN:253,_RNvMs2_NtNtCs9VvCb0vlg4r_18infraware_terminal8terminal7buffersNtB5_14CommandHistory3new
FN:287,_RNvMs2_NtNtCs9VvCb0vlg4r_18infraware_terminal8terminal7buffersNtB5_14CommandHistory4next
FN:270,_RNvMs2_NtNtCs9VvCb0vlg4r_18infraware_terminal8terminal7buffersNtB5_14CommandHistory8previous
FN:414,_RNvNtNtNtCs9VvCb0vlg4r_18infraware_terminal8terminal7buffers5testss_25test_input_buffer_unicode
FN:339,_RNvNtNtNtCs9VvCb0vlg4r_18infraware_terminal8terminal7buffers5testss_25test_output_buffer_scroll
FN:328,_RNvNtNtNtCs9VvCb0vlg4r_18infraware_terminal8terminal7buffers5testss_27test_output_buffer_add_line
FN:450,_RNvNtNtNtCs9VvCb0vlg4r_18infraware_terminal8terminal7buffers5testss_28test_output_buffer_pop_empty
FN:367,_RNvNtNtNtCs9VvCb0vlg4r_18infraware_terminal8terminal7buffers5testss_29test_input_buffer_delete_char
FN:356,_RNvNtNtNtCs9VvCb0vlg4r_18infraware_terminal8terminal7buffers5testss_29test_input_buffer_insert_char
FN:392,_RNvNtNtNtCs9VvCb0vlg4r_18infraware_terminal8terminal7buffers5testss_31test_command_history_navigation
FN:378,_RNvNtNtNtCs9VvCb0vlg4r_18infraware_terminal8terminal7buffers5testss_33test_input_buffer_cursor_movement
FN:405,_RNvNtNtNtCs9VvCb0vlg4r_18infraware_terminal8terminal7buffers5testss_34test_command_history_ignores_empty
FN:430,_RNvNtNtNtCs9VvCb0vlg4r_18infraware_terminal8terminal7buffers5testss_37test_output_buffer_pop_adjusts_scroll
FN:282,_RNCNvMs2_NtNtCs9VvCb0vlg4r_18infraware_terminal8terminal7buffersNtB7_14CommandHistory8previous0Bb_
FN:414,_RNvNtNtNtCsdeW3LDTW70x_18infraware_terminal8terminal7buffers5testss_25test_input_buffer_unicode
FN:339,_RNvNtNtNtCsdeW3LDTW70x_18infraware_terminal8terminal7buffers5testss_25test_output_buffer_scroll
FN:328,_RNvNtNtNtCsdeW3LDTW70x_18infraware_terminal8terminal7buffers5testss_27test_output_buffer_add_line
FN:450,_RNvNtNtNtCsdeW3LDTW70x_18infraware_terminal8terminal7buffers5testss_28test_output_buffer_pop_empty
FN:367,_RNvNtNtNtCsdeW3LDTW70x_18infraware_terminal8terminal7buffers5testss_29test_input_buffer_delete_char
FN:356,_RNvNtNtNtCsdeW3LDTW70x_18infraware_terminal8terminal7buffers5testss_29test_input_buffer_insert_char
FN:392,_RNvNtNtNtCsdeW3LDTW70x_18infraware_terminal8terminal7buffers5testss_31test_command_history_navigation
FN:378,_RNvNtNtNtCsdeW3LDTW70x_18infraware_terminal8terminal7buffers5testss_33test_input_buffer_cursor_movement
FN:405,_RNvNtNtNtCsdeW3LDTW70x_18infraware_terminal8terminal7buffers5testss_34test_command_history_ignores_empty
FN:430,_RNvNtNtNtCsdeW3LDTW70x_18infraware_terminal8terminal7buffers5testss_37test_output_buffer_pop_adjusts_scroll
FN:97,_RNvMNtNtCsdeW3LDTW70x_18infraware_terminal8terminal7buffersNtB2_12OutputBuffer11scroll_down
FN:104,_RNvMNtNtCsdeW3LDTW70x_18infraware_terminal8terminal7buffersNtB2_12OutputBuffer14trim_if_needed
FN:85,_RNvMNtNtCsdeW3LDTW70x_18infraware_terminal8terminal7buffersNtB2_12OutputBuffer15scroll_position
FN:113,_RNvMNtNtCsdeW3LDTW70x_18infraware_terminal8terminal7buffersNtB2_12OutputBuffer21auto_scroll_to_bottom
FN:58,_RNvMNtNtCsdeW3LDTW70x_18infraware_terminal8terminal7buffersNtB2_12OutputBuffer3new
FN:118,_RNvMNtNtCsdeW3LDTW70x_18infraware_terminal8terminal7buffersNtB2_12OutputBuffer3pop
FN:80,_RNvMNtNtCsdeW3LDTW70x_18infraware_terminal8terminal7buffersNtB2_12OutputBuffer5lines
FN:66,_RNvMNtNtCsdeW3LDTW70x_18infraware_terminal8terminal7buffersNtB2_12OutputBuffer8add_line
FN:90,_RNvMNtNtCsdeW3LDTW70x_18infraware_terminal8terminal7buffersNtB2_12OutputBuffer9scroll_up
FN:196,_RNvMs0_NtNtCsdeW3LDTW70x_18infraware_terminal8terminal7buffersNtB5_11InputBuffer11delete_char
FN:177,_RNvMs0_NtNtCsdeW3LDTW70x_18infraware_terminal8terminal7buffersNtB5_11InputBuffer11insert_char
FN:163,_RNvMs0_NtNtCsdeW3LDTW70x_18infraware_terminal8terminal7buffersNtB5_11InputBuffer15cursor_position
FN:168,_RNvMs0_NtNtCsdeW3LDTW70x_18infraware_terminal8terminal7buffersNtB5_11InputBuffer16char_to_byte_idx
FN:205,_RNvMs0_NtNtCsdeW3LDTW70x_18infraware_terminal8terminal7buffersNtB5_11InputBuffer16move_cursor_left
FN:212,_RNvMs0_NtNtCsdeW3LDTW70x_18infraware_terminal8terminal7buffersNtB5_11InputBuffer17move_cursor_right
FN:150,_RNvMs0_NtNtCsdeW3LDTW70x_18infraware_terminal8terminal7buffersNtB5_11InputBuffer3new
FN:158,_RNvMs0_NtNtCsdeW3LDTW70x_18infraware_terminal8terminal7buffersNtB5_11InputBuffer4text
FN:261,_RNvMs2_NtNtCsdeW3LDTW70x_18infraware_terminal8terminal7buffersNtB5_14CommandHistory3add
FN:312,_RNvMs2_NtNtCsdeW3LDTW70x_18infraware_terminal8terminal7buffersNtB5_14CommandHistory3all
FN:253,_RNvMs2_NtNtCsdeW3LDTW70x_18infraware_terminal8terminal7buffersNtB5_14CommandHistory3new
FN:287,_RNvMs2_NtNtCsdeW3LDTW70x_18infraware_terminal8terminal7buffersNtB5_14CommandHistory4next
FN:270,_RNvMs2_NtNtCsdeW3LDTW70x_18infraware_terminal8terminal7buffersNtB5_14CommandHistory8previous
FN:282,_RNCNvMs2_NtNtCsdeW3LDTW70x_18infraware_terminal8terminal7buffersNtB7_14CommandHistory8previous0Bb_
FN:128,_RNvMNtNtCsdeW3LDTW70x_18infraware_terminal8terminal7buffersNtB2_12OutputBuffer5clear
FN:73,_RNvMNtNtCsdeW3LDTW70x_18infraware_terminal8terminal7buffersNtB2_12OutputBuffer9add_lines
FN:232,_RNvMs0_NtNtCsdeW3LDTW70x_18infraware_terminal8terminal7buffersNtB5_11InputBuffer4take
FN:220,_RNvMs0_NtNtCsdeW3LDTW70x_18infraware_terminal8terminal7buffersNtB5_11InputBuffer5clear
FN:226,_RNvMs0_NtNtCsdeW3LDTW70x_18infraware_terminal8terminal7buffersNtB5_11InputBuffer8set_text
FN:307,_RNvMs2_NtNtCsdeW3LDTW70x_18infraware_terminal8terminal7buffersNtB5_14CommandHistory14reset_position
FN:239,_RNvXs1_NtNtCsdeW3LDTW70x_18infraware_terminal8terminal7buffersNtB5_11InputBufferNtNtCs5GmCzIpY9Qj_4core7default7Default7default
FN:318,_RNvXs3_NtNtCsdeW3LDTW70x_18infraware_terminal8terminal7buffersNtB5_14CommandHistoryNtNtCs5GmCzIpY9Qj_4core7default7Default7default
FN:135,_RNvXs_NtNtCsdeW3LDTW70x_18infraware_terminal8terminal7buffersNtB4_12OutputBufferNtNtCs5GmCzIpY9Qj_4core7default7Default7default
FNDA:0,_RNvMNtNtCsgbM7bOyfJDi_18infraware_terminal8terminal7buffersNtB2_12OutputBuffer11scroll_down
FNDA:0,_RNvMNtNtCsgbM7bOyfJDi_18infraware_terminal8terminal7buffersNtB2_12OutputBuffer14trim_if_needed
FNDA:0,_RNvMNtNtCsgbM7bOyfJDi_18infraware_terminal8terminal7buffersNtB2_12OutputBuffer15scroll_position
FNDA:0,_RNvMNtNtCsgbM7bOyfJDi_18infraware_terminal8terminal7buffersNtB2_12OutputBuffer21auto_scroll_to_bottom
FNDA:0,_RNvMNtNtCsgbM7bOyfJDi_18infraware_terminal8terminal7buffersNtB2_12OutputBuffer3new
FNDA:0,_RNvMNtNtCsgbM7bOyfJDi_18infraware_terminal8terminal7buffersNtB2_12OutputBuffer3pop
FNDA:0,_RNvMNtNtCsgbM7bOyfJDi_18infraware_terminal8terminal7buffersNtB2_12OutputBuffer5clear
FNDA:0,_RNvMNtNtCsgbM7bOyfJDi_18infraware_terminal8terminal7buffersNtB2_12OutputBuffer5lines
FNDA:0,_RNvMNtNtCsgbM7bOyfJDi_18infraware_terminal8terminal7buffersNtB2_12OutputBuffer8add_line
FNDA:0,_RNvMNtNtCsgbM7bOyfJDi_18infraware_terminal8terminal7buffersNtB2_12OutputBuffer9add_lines
FNDA:0,_RNvMNtNtCsgbM7bOyfJDi_18infraware_terminal8terminal7buffersNtB2_12OutputBuffer9scroll_up
FNDA:0,_RNvMs0_NtNtCsgbM7bOyfJDi_18infraware_terminal8terminal7buffersNtB5_11InputBuffer11delete_char
FNDA:0,_RNvMs0_NtNtCsgbM7bOyfJDi_18infraware_terminal8terminal7buffersNtB5_11InputBuffer11insert_char
FNDA:0,_RNvMs0_NtNtCsgbM7bOyfJDi_18infraware_terminal8terminal7buffersNtB5_11InputBuffer15cursor_position
FNDA:0,_RNvMs0_NtNtCsgbM7bOyfJDi_18infraware_terminal8terminal7buffersNtB5_11InputBuffer16char_to_byte_idx
FNDA:0,_RNvMs0_NtNtCsgbM7bOyfJDi_18infraware_terminal8terminal7buffersNtB5_11InputBuffer16move_cursor_left
FNDA:0,_RNvMs0_NtNtCsgbM7bOyfJDi_18infraware_terminal8terminal7buffersNtB5_11InputBuffer17move_cursor_right
FNDA:0,_RNvMs0_NtNtCsgbM7bOyfJDi_18infraware_terminal8terminal7buffersNtB5_11InputBuffer3new
FNDA:0,_RNvMs0_NtNtCsgbM7bOyfJDi_18infraware_terminal8terminal7buffersNtB5_11InputBuffer4take
FNDA:0,_RNvMs0_NtNtCsgbM7bOyfJDi_18infraware_terminal8terminal7buffersNtB5_11InputBuffer4text
FNDA:0,_RNvMs0_NtNtCsgbM7bOyfJDi_18infraware_terminal8terminal7buffersNtB5_11InputBuffer5clear
FNDA:0,_RNvMs0_NtNtCsgbM7bOyfJDi_18infraware_terminal8terminal7buffersNtB5_11InputBuffer8set_text
FNDA:0,_RNvMs2_NtNtCsgbM7bOyfJDi_18infraware_terminal8terminal7buffersNtB5_14CommandHistory14reset_position
FNDA:0,_RNvMs2_NtNtCsgbM7bOyfJDi_18infraware_terminal8terminal7buffersNtB5_14CommandHistory3add
FNDA:0,_RNvMs2_NtNtCsgbM7bOyfJDi_18infraware_terminal8terminal7buffersNtB5_14CommandHistory3all
FNDA:0,_RNvMs2_NtNtCsgbM7bOyfJDi_18infraware_terminal8terminal7buffersNtB5_14CommandHistory3new
FNDA:0,_RNvMs2_NtNtCsgbM7bOyfJDi_18infraware_terminal8terminal7buffersNtB5_14CommandHistory4next
FNDA:0,_RNvMs2_NtNtCsgbM7bOyfJDi_18infraware_terminal8terminal7buffersNtB5_14CommandHistory8previous
FNDA:0,_RNvXs1_NtNtCsgbM7bOyfJDi_18infraware_terminal8terminal7buffersNtB5_11InputBufferNtNtCs5GmCzIpY9Qj_4core7default7Default7default
FNDA:0,_RNvXs3_NtNtCsgbM7bOyfJDi_18infraware_terminal8terminal7buffersNtB5_14CommandHistoryNtNtCs5GmCzIpY9Qj_4core7default7Default7default
FNDA:0,_RNvXs_NtNtCsgbM7bOyfJDi_18infraware_terminal8terminal7buffersNtB4_12OutputBufferNtNtCs5GmCzIpY9Qj_4core7default7Default7default
FNDA:0,_RNCNvMs2_NtNtCsgbM7bOyfJDi_18infraware_terminal8terminal7buffersNtB7_14CommandHistory8previous0Bb_
FNDA:0,_RNvMNtNtCskvicDDTzzc8_18infraware_terminal8terminal7buffersNtB2_12OutputBuffer15scroll_position
FNDA:0,_RNvXs1_NtNtCskvicDDTzzc8_18infraware_terminal8terminal7buffersNtB5_11InputBufferNtNtCs5GmCzIpY9Qj_4core7default7Default7default
FNDA:0,_RNvXs3_NtNtCskvicDDTzzc8_18infraware_terminal8terminal7buffersNtB5_14CommandHistoryNtNtCs5GmCzIpY9Qj_4core7default7Default7default
FNDA:0,_RNvXs_NtNtCskvicDDTzzc8_18infraware_terminal8terminal7buffersNtB4_12OutputBufferNtNtCs5GmCzIpY9Qj_4core7default7Default7default
FNDA:0,_RNvMNtNtCskvicDDTzzc8_18infraware_terminal8terminal7buffersNtB2_12OutputBuffer11scroll_down
FNDA:0,_RNvMNtNtCskvicDDTzzc8_18infraware_terminal8terminal7buffersNtB2_12OutputBuffer14trim_if_needed
FNDA:0,_RNvMNtNtCskvicDDTzzc8_18infraware_terminal8terminal7buffersNtB2_12OutputBuffer21auto_scroll_to_bottom
FNDA:0,_RNvMNtNtCskvicDDTzzc8_18infraware_terminal8terminal7buffersNtB2_12OutputBuffer3new
FNDA:0,_RNvMNtNtCskvicDDTzzc8_18infraware_terminal8terminal7buffersNtB2_12OutputBuffer3pop
FNDA:0,_RNvMNtNtCskvicDDTzzc8_18infraware_terminal8terminal7buffersNtB2_12OutputBuffer5clear
FNDA:0,_RNvMNtNtCskvicDDTzzc8_18infraware_terminal8terminal7buffersNtB2_12OutputBuffer5lines
FNDA:0,_RNvMNtNtCskvicDDTzzc8_18infraware_terminal8terminal7buffersNtB2_12OutputBuffer8add_line
FNDA:0,_RNvMNtNtCskvicDDTzzc8_18infraware_terminal8terminal7buffersNtB2_12OutputBuffer9add_lines
FNDA:0,_RNvMNtNtCskvicDDTzzc8_18infraware_terminal8terminal7buffersNtB2_12OutputBuffer9scroll_up
FNDA:0,_RNvMs0_NtNtCskvicDDTzzc8_18infraware_terminal8terminal7buffersNtB5_11InputBuffer11delete_char
FNDA:0,_RNvMs0_NtNtCskvicDDTzzc8_18infraware_terminal8terminal7buffersNtB5_11InputBuffer11insert_char
FNDA:0,_RNvMs0_NtNtCskvicDDTzzc8_18infraware_terminal8terminal7buffersNtB5_11InputBuffer15cursor_position
FNDA:0,_RNvMs0_NtNtCskvicDDTzzc8_18infraware_terminal8terminal7buffersNtB5_11InputBuffer16char_to_byte_idx
FNDA:0,_RNvMs0_NtNtCskvicDDTzzc8_18infraware_terminal8terminal7buffersNtB5_11InputBuffer16move_cursor_left
FNDA:0,_RNvMs0_NtNtCskvicDDTzzc8_18infraware_terminal8terminal7buffersNtB5_11InputBuffer17move_cursor_right
FNDA:0,_RNvMs0_NtNtCskvicDDTzzc8_18infraware_terminal8terminal7buffersNtB5_11InputBuffer3new
FNDA:0,_RNvMs0_NtNtCskvicDDTzzc8_18infraware_terminal8terminal7buffersNtB5_11InputBuffer4take
FNDA:0,_RNvMs0_NtNtCskvicDDTzzc8_18infraware_terminal8terminal7buffersNtB5_11InputBuffer4text
FNDA:0,_RNvMs0_NtNtCskvicDDTzzc8_18infraware_terminal8terminal7buffersNtB5_11InputBuffer5clear
FNDA:0,_RNvMs0_NtNtCskvicDDTzzc8_18infraware_terminal8terminal7buffersNtB5_11InputBuffer8set_text
FNDA:0,_RNvMs2_NtNtCskvicDDTzzc8_18infraware_terminal8terminal7buffersNtB5_14CommandHistory14reset_position
FNDA:0,_RNvMs2_NtNtCskvicDDTzzc8_18infraware_terminal8terminal7buffersNtB5_14CommandHistory3add
FNDA:0,_RNvMs2_NtNtCskvicDDTzzc8_18infraware_terminal8terminal7buffersNtB5_14CommandHistory3all
FNDA:0,_RNvMs2_NtNtCskvicDDTzzc8_18infraware_terminal8terminal7buffersNtB5_14CommandHistory3new
FNDA:0,_RNvMs2_NtNtCskvicDDTzzc8_18infraware_terminal8terminal7buffersNtB5_14CommandHistory4next
FNDA:0,_RNvMs2_NtNtCskvicDDTzzc8_18infraware_terminal8terminal7buffersNtB5_14CommandHistory8previous
FNDA:0,_RNCNvMs2_NtNtCskvicDDTzzc8_18infraware_terminal8terminal7buffersNtB7_14CommandHistory8previous0Bb_
FNDA:0,_RNvMNtNtCs9VvCb0vlg4r_18infraware_terminal8terminal7buffersNtB2_12OutputBuffer5clear
FNDA:0,_RNvMs0_NtNtCs9VvCb0vlg4r_18infraware_terminal8terminal7buffersNtB5_11InputBuffer4take
FNDA:0,_RNvMs0_NtNtCs9VvCb0vlg4r_18infraware_terminal8terminal7buffersNtB5_11InputBuffer5clear
FNDA:0,_RNvMs2_NtNtCs9VvCb0vlg4r_18infraware_terminal8terminal7buffersNtB5_14CommandHistory14reset_position
FNDA:0,_RNvXs1_NtNtCs9VvCb0vlg4r_18infraware_terminal8terminal7buffersNtB5_11InputBufferNtNtCs5GmCzIpY9Qj_4core7default7Default7default
FNDA:0,_RNvXs3_NtNtCs9VvCb0vlg4r_18infraware_terminal8terminal7buffersNtB5_14CommandHistoryNtNtCs5GmCzIpY9Qj_4core7default7Default7default
FNDA:0,_RNvXs_NtNtCs9VvCb0vlg4r_18infraware_terminal8terminal7buffersNtB4_12OutputBufferNtNtCs5GmCzIpY9Qj_4core7default7Default7default
FNDA:1,_RNvMNtNtCs9VvCb0vlg4r_18infraware_terminal8terminal7buffersNtB2_12OutputBuffer11scroll_down
FNDA:26,_RNvMNtNtCs9VvCb0vlg4r_18infraware_terminal8terminal7buffersNtB2_12OutputBuffer14trim_if_needed
FNDA:6,_RNvMNtNtCs9VvCb0vlg4r_18infraware_terminal8terminal7buffersNtB2_12OutputBuffer15scroll_position
FNDA:26,_RNvMNtNtCs9VvCb0vlg4r_18infraware_terminal8terminal7buffersNtB2_12OutputBuffer21auto_scroll_to_bottom
FNDA:21,_RNvMNtNtCs9VvCb0vlg4r_18infraware_terminal8terminal7buffersNtB2_12OutputBuffer3new
FNDA:8,_RNvMNtNtCs9VvCb0vlg4r_18infraware_terminal8terminal7buffersNtB2_12OutputBuffer3pop
FNDA:27,_RNvMNtNtCs9VvCb0vlg4r_18infraware_terminal8terminal7buffersNtB2_12OutputBuffer5lines
FNDA:22,_RNvMNtNtCs9VvCb0vlg4r_18infraware_terminal8terminal7buffersNtB2_12OutputBuffer8add_line
FNDA:4,_RNvMNtNtCs9VvCb0vlg4r_18infraware_terminal8terminal7buffersNtB2_12OutputBuffer9add_lines
FNDA:2,_RNvMNtNtCs9VvCb0vlg4r_18infraware_terminal8terminal7buffersNtB2_12OutputBuffer9scroll_up
FNDA:2,_RNvMs0_NtNtCs9VvCb0vlg4r_18infraware_terminal8terminal7buffersNtB5_11InputBuffer11delete_char
FNDA:11,_RNvMs0_NtNtCs9VvCb0vlg4r_18infraware_terminal8terminal7buffersNtB5_11InputBuffer11insert_char
FNDA:7,_RNvMs0_NtNtCs9VvCb0vlg4r_18infraware_terminal8terminal7buffersNtB5_11InputBuffer15cursor_position
FNDA:13,_RNvMs0_NtNtCs9VvCb0vlg4r_18infraware_terminal8terminal7buffersNtB5_11InputBuffer16char_to_byte_idx
FNDA:2,_RNvMs0_NtNtCs9VvCb0vlg4r_18infraware_terminal8terminal7buffersNtB5_11InputBuffer16move_cursor_left
FNDA:1,_RNvMs0_NtNtCs9VvCb0vlg4r_18infraware_terminal8terminal7buffersNtB5_11InputBuffer17move_cursor_right
FNDA:21,_RNvMs0_NtNtCs9VvCb0vlg4r_18infraware_terminal8terminal7buffersNtB5_11InputBuffer3new
FNDA:5,_RNvMs0_NtNtCs9VvCb0vlg4r_18infraware_terminal8terminal7buffersNtB5_11InputBuffer4text
FNDA:4,_RNvMs0_NtNtCs9VvCb0vlg4r_18infraware_terminal8terminal7buffersNtB5_11InputBuffer8set_text
FNDA:5,_RNvMs2_NtNtCs9VvCb0vlg4r_18infraware_terminal8terminal7buffersNtB5_14CommandHistory3add
FNDA:1,_RNvMs2_NtNtCs9VvCb0vlg4r_18infraware_terminal8terminal7buffersNtB5_14CommandHistory3all
FNDA:19,_RNvMs2_NtNtCs9VvCb0vlg4r_18infraware_terminal8terminal7buffersNtB5_14CommandHistory3new
FNDA:2,_RNvMs2_NtNtCs9VvCb0vlg4r_18infraware_terminal8terminal7buffersNtB5_14CommandHistory4next
FNDA:2,_RNvMs2_NtNtCs9VvCb0vlg4r_18infraware_terminal8terminal7buffersNtB5_14CommandHistory8previous
FNDA:1,_RNvNtNtNtCs9VvCb0vlg4r_18infraware_terminal8terminal7buffers5testss_25test_input_buffer_unicode
FNDA:1,_RNvNtNtNtCs9VvCb0vlg4r_18infraware_terminal8terminal7buffers5testss_25test_output_buffer_scroll
FNDA:1,_RNvNtNtNtCs9VvCb0vlg4r_18infraware_terminal8terminal7buffers5testss_27test_output_buffer_add_line
FNDA:1,_RNvNtNtNtCs9VvCb0vlg4r_18infraware_terminal8terminal7buffers5testss_28test_output_buffer_pop_empty
FNDA:1,_RNvNtNtNtCs9VvCb0vlg4r_18infraware_terminal8terminal7buffers5testss_29test_input_buffer_delete_char
FNDA:1,_RNvNtNtNtCs9VvCb0vlg4r_18infraware_terminal8terminal7buffers5testss_29test_input_buffer_insert_char
FNDA:1,_RNvNtNtNtCs9VvCb0vlg4r_18infraware_terminal8terminal7buffers5testss_31test_command_history_navigation
FNDA:1,_RNvNtNtNtCs9VvCb0vlg4r_18infraware_terminal8terminal7buffers5testss_33test_input_buffer_cursor_movement
FNDA:1,_RNvNtNtNtCs9VvCb0vlg4r_18infraware_terminal8terminal7buffers5testss_34test_command_history_ignores_empty
FNDA:1,_RNvNtNtNtCs9VvCb0vlg4r_18infraware_terminal8terminal7buffers5testss_37test_output_buffer_pop_adjusts_scroll
FNDA:2,_RNCNvMs2_NtNtCs9VvCb0vlg4r_18infraware_terminal8terminal7buffersNtB7_14CommandHistory8previous0Bb_
FNDA:1,_RNvNtNtNtCsdeW3LDTW70x_18infraware_terminal8terminal7buffers5testss_25test_input_buffer_unicode
FNDA:1,_RNvNtNtNtCsdeW3LDTW70x_18infraware_terminal8terminal7buffers5testss_25test_output_buffer_scroll
FNDA:1,_RNvNtNtNtCsdeW3LDTW70x_18infraware_terminal8terminal7buffers5testss_27test_output_buffer_add_line
FNDA:1,_RNvNtNtNtCsdeW3LDTW70x_18infraware_terminal8terminal7buffers5testss_28test_output_buffer_pop_empty
FNDA:1,_RNvNtNtNtCsdeW3LDTW70x_18infraware_terminal8terminal7buffers5testss_29test_input_buffer_delete_char
FNDA:1,_RNvNtNtNtCsdeW3LDTW70x_18infraware_terminal8terminal7buffers5testss_29test_input_buffer_insert_char
FNDA:1,_RNvNtNtNtCsdeW3LDTW70x_18infraware_terminal8terminal7buffers5testss_31test_command_history_navigation
FNDA:1,_RNvNtNtNtCsdeW3LDTW70x_18infraware_terminal8terminal7buffers5testss_33test_input_buffer_cursor_movement
FNDA:1,_RNvNtNtNtCsdeW3LDTW70x_18infraware_terminal8terminal7buffers5testss_34test_command_history_ignores_empty
FNDA:1,_RNvNtNtNtCsdeW3LDTW70x_18infraware_terminal8terminal7buffers5testss_37test_output_buffer_pop_adjusts_scroll
FNDA:1,_RNvMNtNtCsdeW3LDTW70x_18infraware_terminal8terminal7buffersNtB2_12OutputBuffer11scroll_down
FNDA:8,_RNvMNtNtCsdeW3LDTW70x_18infraware_terminal8terminal7buffersNtB2_12OutputBuffer14trim_if_needed
FNDA:6,_RNvMNtNtCsdeW3LDTW70x_18infraware_terminal8terminal7buffersNtB2_12OutputBuffer15scroll_position
FNDA:8,_RNvMNtNtCsdeW3LDTW70x_18infraware_terminal8terminal7buffersNtB2_12OutputBuffer21auto_scroll_to_bottom
FNDA:4,_RNvMNtNtCsdeW3LDTW70x_18infraware_terminal8terminal7buffersNtB2_12OutputBuffer3new
FNDA:2,_RNvMNtNtCsdeW3LDTW70x_18infraware_terminal8terminal7buffersNtB2_12OutputBuffer3pop
FNDA:5,_RNvMNtNtCsdeW3LDTW70x_18infraware_terminal8terminal7buffersNtB2_12OutputBuffer5lines
FNDA:8,_RNvMNtNtCsdeW3LDTW70x_18infraware_terminal8terminal7buffersNtB2_12OutputBuffer8add_line
FNDA:2,_RNvMNtNtCsdeW3LDTW70x_18infraware_terminal8terminal7buffersNtB2_12OutputBuffer9scroll_up
FNDA:2,_RNvMs0_NtNtCsdeW3LDTW70x_18infraware_terminal8terminal7buffersNtB5_11InputBuffer11delete_char
FNDA:11,_RNvMs0_NtNtCsdeW3LDTW70x_18infraware_terminal8terminal7buffersNtB5_11InputBuffer11insert_char
FNDA:6,_RNvMs0_NtNtCsdeW3LDTW70x_18infraware_terminal8terminal7buffersNtB5_11InputBuffer15cursor_position
FNDA:13,_RNvMs0_NtNtCsdeW3LDTW70x_18infraware_terminal8terminal7buffersNtB5_11InputBuffer16char_to_byte_idx
FNDA:2,_RNvMs0_NtNtCsdeW3LDTW70x_18infraware_terminal8terminal7buffersNtB5_11InputBuffer16move_cursor_left
FNDA:1,_RNvMs0_NtNtCsdeW3LDTW70x_18infraware_terminal8terminal7buffersNtB5_11InputBuffer17move_cursor_right
FNDA:4,_RNvMs0_NtNtCsdeW3LDTW70x_18infraware_terminal8terminal7buffersNtB5_11InputBuffer3new
FNDA:4,_RNvMs0_NtNtCsdeW3LDTW70x_18infraware_terminal8terminal7buffersNtB5_11InputBuffer4text
FNDA:5,_RNvMs2_NtNtCsdeW3LDTW70x_18infraware_terminal8terminal7buffersNtB5_14CommandHistory3add
FNDA:1,_RNvMs2_NtNtCsdeW3LDTW70x_18infraware_terminal8terminal7buffersNtB5_14CommandHistory3all
FNDA:2,_RNvMs2_NtNtCsdeW3LDTW70x_18infraware_terminal8terminal7buffersNtB5_14CommandHistory3new
FNDA:2,_RNvMs2_NtNtCsdeW3LDTW70x_18infraware_terminal8terminal7buffersNtB5_14CommandHistory4next
FNDA:2,_RNvMs2_NtNtCsdeW3LDTW70x_18infraware_terminal8terminal7buffersNtB5_14CommandHistory8previous
FNDA:2,_RNCNvMs2_NtNtCsdeW3LDTW70x_18infraware_terminal8terminal7buffersNtB7_14CommandHistory8previous0Bb_
FNDA:0,_RNvMNtNtCsdeW3LDTW70x_18infraware_terminal8terminal7buffersNtB2_12OutputBuffer5clear
FNDA:0,_RNvMNtNtCsdeW3LDTW70x_18infraware_terminal8terminal7buffersNtB2_12OutputBuffer9add_lines
FNDA:0,_RNvMs0_NtNtCsdeW3LDTW70x_18infraware_terminal8terminal7buffersNtB5_11InputBuffer4take
FNDA:0,_RNvMs0_NtNtCsdeW3LDTW70x_18infraware_terminal8terminal7buffersNtB5_11InputBuffer5clear
FNDA:0,_RNvMs0_NtNtCsdeW3LDTW70x_18infraware_terminal8terminal7buffersNtB5_11InputBuffer8set_text
FNDA:0,_RNvMs2_NtNtCsdeW3LDTW70x_18infraware_terminal8terminal7buffersNtB5_14CommandHistory14reset_position
FNDA:0,_RNvXs1_NtNtCsdeW3LDTW70x_18infraware_terminal8terminal7buffersNtB5_11InputBufferNtNtCs5GmCzIpY9Qj_4core7default7Default7default
FNDA:0,_RNvXs3_NtNtCsdeW3LDTW70x_18infraware_terminal8terminal7buffersNtB5_14CommandHistoryNtNtCs5GmCzIpY9Qj_4core7default7Default7default
FNDA:0,_RNvXs_NtNtCsdeW3LDTW70x_18infraware_terminal8terminal7buffersNtB4_12OutputBufferNtNtCs5GmCzIpY9Qj_4core7default7Default7default
FNF:42
FNH:35
DA:58,25
DA:59,25
DA:60,25
DA:61,25
DA:62,25
DA:63,25
DA:66,30
DA:67,30
DA:68,30
DA:69,30
DA:70,30
DA:73,4
DA:74,4
DA:75,4
DA:76,4
DA:77,4
DA:80,32
DA:81,32
DA:82,32
DA:85,12
DA:86,12
DA:87,12
DA:90,4
DA:91,4
DA:92,4
DA:93,4
DA:94,4
DA:97,2
DA:98,2
DA:99,2
DA:100,2
DA:101,2
DA:104,34
DA:105,34
DA:106,0
DA:107,0
DA:108,0
DA:109,34
DA:110,34
DA:113,34
DA:114,34
DA:115,34
DA:118,10
DA:119,10
DA:121,10
DA:122,8
DA:123,8
DA:124,10
DA:125,10
DA:128,0
DA:129,0
DA:130,0
DA:131,0
DA:135,0
DA:136,0
DA:137,0
DA:150,25
DA:151,25
DA:152,25
DA:153,25
DA:154,25
DA:155,25
DA:158,9
DA:159,9
DA:160,9
DA:163,13
DA:164,13
DA:165,13
DA:168,26
DA:169,26
DA:170,26
DA:171,26
DA:172,26
DA:173,26
DA:174,26
DA:177,22
DA:178,22
DA:180,22
DA:181,22
DA:182,0
DA:187,22
DA:190,22
DA:191,22
DA:192,22
DA:193,22
DA:196,4
DA:197,4
DA:198,4
DA:199,4
DA:200,4
DA:201,4
DA:202,4
DA:205,4
DA:206,4
DA:207,4
DA:208,4
DA:209,4
DA:212,2
DA:213,2
DA:214,2
DA:215,2
DA:216,2
DA:217,2
DA:220,0
DA:221,0
DA:222,0
DA:223,0
DA:226,4
DA:227,4
DA:228,4
DA:229,4
DA:232,0
DA:233,0
DA:234,0
DA:235,0
DA:239,0
DA:240,0
DA:241,0
DA:253,21
DA:254,21
DA:255,21
DA:256,21
DA:257,21
DA:258,21
DA:261,10
DA:262,10
DA:263,6
DA:264,6
DA:265,10
DA:266,10
DA:270,4
DA:271,4
DA:272,0
DA:273,4
DA:275,4
DA:276,2
DA:277,2
DA:278,0
DA:281,4
DA:282,4
DA:283,4
DA:287,4
DA:288,4
DA:289,0
DA:290,4
DA:292,4
DA:293,0
DA:294,4
DA:295,2
DA:296,2
DA:297,2
DA:300,2
DA:301,2
DA:304,4
DA:307,0
DA:308,0
DA:309,0
DA:312,2
DA:313,2
DA:314,2
DA:318,0
DA:319,0
DA:320,0
DA:328,2
DA:329,2
DA:330,2
DA:331,2
DA:333,2
DA:334,2
DA:335,2
DA:336,2
DA:339,2
DA:340,2
DA:341,2
DA:342,2
DA:343,2
DA:346,2
DA:348,2
DA:349,2
DA:351,2
DA:352,2
DA:353,2
DA:356,2
DA:357,2
DA:358,2
DA:359,2
DA:360,2
DA:362,2
DA:363,2
DA:364,2
DA:367,2
DA:368,2
DA:369,2
DA:370,2
DA:371,2
DA:373,2
DA:374,2
DA:375,2
DA:378,2
DA:379,2
DA:380,2
DA:381,2
DA:382,2
DA:384,2
DA:385,2
DA:387,2
DA:388,2
DA:389,2
DA:392,2
DA:393,2
DA:394,2
DA:395,2
DA:396,2
DA:398,2
DA:399,2
DA:400,2
DA:401,2
DA:402,2
DA:405,2
DA:406,2
DA:407,2
DA:408,2
DA:410,2
DA:411,2
DA:414,2
DA:415,2
DA:416,2
DA:417,2
DA:418,2
DA:420,2
DA:421,2
DA:423,2
DA:424,2
DA:425,2
DA:426,2
DA:427,2
DA:430,2
DA:431,2
DA:432,2
DA:433,2
DA:434,2
DA:437,2
DA:438,2
DA:441,2
DA:442,2
DA:443,2
DA:446,2
DA:447,2
DA:450,2
DA:451,2
DA:452,2
DA:453,2
DA:454,2
BRF:0
BRH:0
LF:254
LH:222
end_of_record
SF:/home/crist/infraware-terminal/terminal-app/src/terminal/events.rs
FN:18,_RNvMNtNtCskvicDDTzzc8_18infraware_terminal8terminal6eventsNtB2_12EventHandler10poll_event
FN:37,_RNvMNtNtCskvicDDTzzc8_18infraware_terminal8terminal6eventsNtB2_12EventHandler13map_key_event
FN:13,_RNvMNtNtCskvicDDTzzc8_18infraware_terminal8terminal6eventsNtB2_12EventHandler3new
FN:28,_RNvMNtNtCskvicDDTzzc8_18infraware_terminal8terminal6eventsNtB2_12EventHandler9map_event
FN:82,_RNvXs_NtNtCskvicDDTzzc8_18infraware_terminal8terminal6eventsNtB4_12EventHandlerNtNtCs5GmCzIpY9Qj_4core7default7Default7default
FN:18,_RNvMNtNtCs9VvCb0vlg4r_18infraware_terminal8terminal6eventsNtB2_12EventHandler10poll_event
FN:126,_RNvNtNtNtCs9VvCb0vlg4r_18infraware_terminal8terminal6events5tests16create_key_event
FN:130,_RNvNtNtNtCs9VvCb0vlg4r_18infraware_terminal8terminal6events5tests26create_key_event_with_kind
FN:219,_RNvNtNtNtCs9VvCb0vlg4r_18infraware_terminal8terminal6events5testss_12test_page_up
FN:187,_RNvNtNtNtCs9VvCb0vlg4r_18infraware_terminal8terminal6events5testss_13test_arrow_up
FN:227,_RNvNtNtNtCs9VvCb0vlg4r_18infraware_terminal8terminal6events5testss_14test_page_down
FN:195,_RNvNtNtNtCs9VvCb0vlg4r_18infraware_terminal8terminal6events5testss_15test_arrow_down
FN:203,_RNvNtNtNtCs9VvCb0vlg4r_18infraware_terminal8terminal6events5testss_15test_arrow_left
FN:211,_RNvNtNtNtCs9VvCb0vlg4r_18infraware_terminal8terminal6events5testss_16test_arrow_right
FN:235,_RNvNtNtNtCs9VvCb0vlg4r_18infraware_terminal8terminal6events5testss_16test_ctrl_c_quit
FN:243,_RNvNtNtNtCs9VvCb0vlg4r_18infraware_terminal8terminal6events5testss_16test_ctrl_d_quit
FN:251,_RNvNtNtNtCs9VvCb0vlg4r_18infraware_terminal8terminal6events5testss_17test_ctrl_l_clear
FN:323,_RNvNtNtNtCs9VvCb0vlg4r_18infraware_terminal8terminal6events5testss_18test_default_trait
FN:292,_RNvNtNtNtCs9VvCb0vlg4r_18infraware_terminal8terminal6events5testss_18test_map_event_key
FN:179,_RNvNtNtNtCs9VvCb0vlg4r_18infraware_terminal8terminal6events5testss_19test_tab_completion
FN:163,_RNvNtNtNtCs9VvCb0vlg4r_18infraware_terminal8terminal6events5testss_20test_submit_on_enter
FN:301,_RNvNtNtNtCs9VvCb0vlg4r_18infraware_terminal8terminal6events5testss_21test_map_event_resize
FN:155,_RNvNtNtNtCs9VvCb0vlg4r_18infraware_terminal8terminal6events5testss_22test_input_char_number
FN:309,_RNvNtNtNtCs9VvCb0vlg4r_18infraware_terminal8terminal6events5testss_22test_map_event_unknown
FN:340,_RNvNtNtNtCs9VvCb0vlg4r_18infraware_terminal8terminal6events5testss_23test_special_characters
FN:171,_RNvNtNtNtCs9VvCb0vlg4r_18infraware_terminal8terminal6events5testss_24test_delete_on_backspace
FN:139,_RNvNtNtNtCs9VvCb0vlg4r_18infraware_terminal8terminal6events5testss_25test_input_char_lowercase
FN:147,_RNvNtNtNtCs9VvCb0vlg4r_18infraware_terminal8terminal6events5testss_25test_input_char_uppercase
FN:283,_RNvNtNtNtCs9VvCb0vlg4r_18infraware_terminal8terminal6events5testss_31test_windows_event_filter_press
FN:271,_RNvNtNtNtCs9VvCb0vlg4r_18infraware_terminal8terminal6events5testss_32test_windows_event_filter_repeat
FN:259,_RNvNtNtNtCs9VvCb0vlg4r_18infraware_terminal8terminal6events5testss_33test_windows_event_filter_release
FN:331,_RNvNtNtNtCs9VvCb0vlg4r_18infraware_terminal8terminal6events5testss_36test_char_with_ctrl_modifier_unknown
FN:37,_RNvMNtNtCs9VvCb0vlg4r_18infraware_terminal8terminal6eventsNtB2_12EventHandler13map_key_event
FN:13,_RNvMNtNtCs9VvCb0vlg4r_18infraware_terminal8terminal6eventsNtB2_12EventHandler3new
FN:28,_RNvMNtNtCs9VvCb0vlg4r_18infraware_terminal8terminal6eventsNtB2_12EventHandler9map_event
FN:82,_RNvXs_NtNtCs9VvCb0vlg4r_18infraware_terminal8terminal6eventsNtB4_12EventHandlerNtNtCs5GmCzIpY9Qj_4core7default7Default7default
FN:126,_RNvNtNtNtCsdeW3LDTW70x_18infraware_terminal8terminal6events5tests16create_key_event
FN:130,_RNvNtNtNtCsdeW3LDTW70x_18infraware_terminal8terminal6events5tests26create_key_event_with_kind
FN:219,_RNvNtNtNtCsdeW3LDTW70x_18infraware_terminal8terminal6events5testss_12test_page_up
FN:187,_RNvNtNtNtCsdeW3LDTW70x_18infraware_terminal8terminal6events5testss_13test_arrow_up
FN:227,_RNvNtNtNtCsdeW3LDTW70x_18infraware_terminal8terminal6events5testss_14test_page_down
FN:195,_RNvNtNtNtCsdeW3LDTW70x_18infraware_terminal8terminal6events5testss_15test_arrow_down
FN:203,_RNvNtNtNtCsdeW3LDTW70x_18infraware_terminal8terminal6events5testss_15test_arrow_left
FN:211,_RNvNtNtNtCsdeW3LDTW70x_18infraware_terminal8terminal6events5testss_16test_arrow_right
FN:235,_RNvNtNtNtCsdeW3LDTW70x_18infraware_terminal8terminal6events5testss_16test_ctrl_c_quit
FN:243,_RNvNtNtNtCsdeW3LDTW70x_18infraware_terminal8terminal6events5testss_16test_ctrl_d_quit
FN:251,_RNvNtNtNtCsdeW3LDTW70x_18infraware_terminal8terminal6events5testss_17test_ctrl_l_clear
FN:323,_RNvNtNtNtCsdeW3LDTW70x_18infraware_terminal8terminal6events5testss_18test_default_trait
FN:292,_RNvNtNtNtCsdeW3LDTW70x_18infraware_terminal8terminal6events5testss_18test_map_event_key
FN:179,_RNvNtNtNtCsdeW3LDTW70x_18infraware_terminal8terminal6events5testss_19test_tab_completion
FN:163,_RNvNtNtNtCsdeW3LDTW70x_18infraware_terminal8terminal6events5testss_20test_submit_on_enter
FN:301,_RNvNtNtNtCsdeW3LDTW70x_18infraware_terminal8terminal6events5testss_21test_map_event_resize
FN:155,_RNvNtNtNtCsdeW3LDTW70x_18infraware_terminal8terminal6events5testss_22test_input_char_number
FN:309,_RNvNtNtNtCsdeW3LDTW70x_18infraware_terminal8terminal6events5testss_22test_map_event_unknown
FN:340,_RNvNtNtNtCsdeW3LDTW70x_18infraware_terminal8terminal6events5testss_23test_special_characters
FN:171,_RNvNtNtNtCsdeW3LDTW70x_18infraware_terminal8terminal6events5testss_24test_delete_on_backspace
FN:139,_RNvNtNtNtCsdeW3LDTW70x_18infraware_terminal8terminal6events5testss_25test_input_char_lowercase
FN:147,_RNvNtNtNtCsdeW3LDTW70x_18infraware_terminal8terminal6events5testss_25test_input_char_uppercase
FN:283,_RNvNtNtNtCsdeW3LDTW70x_18infraware_terminal8terminal6events5testss_31test_windows_event_filter_press
FN:271,_RNvNtNtNtCsdeW3LDTW70x_18infraware_terminal8terminal6events5testss_32test_windows_event_filter_repeat
FN:259,_RNvNtNtNtCsdeW3LDTW70x_18infraware_terminal8terminal6events5testss_33test_windows_event_filter_release
FN:331,_RNvNtNtNtCsdeW3LDTW70x_18infraware_terminal8terminal6events5testss_36test_char_with_ctrl_modifier_unknown
FN:37,_RNvMNtNtCsdeW3LDTW70x_18infraware_terminal8terminal6eventsNtB2_12EventHandler13map_key_event
FN:13,_RNvMNtNtCsdeW3LDTW70x_18infraware_terminal8terminal6eventsNtB2_12EventHandler3new
FN:28,_RNvMNtNtCsdeW3LDTW70x_18infraware_terminal8terminal6eventsNtB2_12EventHandler9map_event
FN:82,_RNvXs_NtNtCsdeW3LDTW70x_18infraware_terminal8terminal6eventsNtB4_12EventHandlerNtNtCs5GmCzIpY9Qj_4core7default7Default7default
FN:18,_RNvMNtNtCsdeW3LDTW70x_18infraware_terminal8terminal6eventsNtB2_12EventHandler10poll_event
FNDA:0,_RNvMNtNtCskvicDDTzzc8_18infraware_terminal8terminal6eventsNtB2_12EventHandler10poll_event
FNDA:0,_RNvMNtNtCskvicDDTzzc8_18infraware_terminal8terminal6eventsNtB2_12EventHandler13map_key_event
FNDA:0,_RNvMNtNtCskvicDDTzzc8_18infraware_terminal8terminal6eventsNtB2_12EventHandler3new
FNDA:0,_RNvMNtNtCskvicDDTzzc8_18infraware_terminal8terminal6eventsNtB2_12EventHandler9map_event
FNDA:0,_RNvXs_NtNtCskvicDDTzzc8_18infraware_terminal8terminal6eventsNtB4_12EventHandlerNtNtCs5GmCzIpY9Qj_4core7default7Default7default
FNDA:0,_RNvMNtNtCs9VvCb0vlg4r_18infraware_terminal8terminal6eventsNtB2_12EventHandler10poll_event
FNDA:20,_RNvNtNtNtCs9VvCb0vlg4r_18infraware_terminal8terminal6events5tests16create_key_event
FNDA:3,_RNvNtNtNtCs9VvCb0vlg4r_18infraware_terminal8terminal6events5tests26create_key_event_with_kind
FNDA:1,_RNvNtNtNtCs9VvCb0vlg4r_18infraware_terminal8terminal6events5testss_12test_page_up
FNDA:1,_RNvNtNtNtCs9VvCb0vlg4r_18infraware_terminal8terminal6events5testss_13test_arrow_up
FNDA:1,_RNvNtNtNtCs9VvCb0vlg4r_18infraware_terminal8terminal6events5testss_14test_page_down
FNDA:1,_RNvNtNtNtCs9VvCb0vlg4r_18infraware_terminal8terminal6events5testss_15test_arrow_down
FNDA:1,_RNvNtNtNtCs9VvCb0vlg4r_18infraware_terminal8terminal6events5testss_15test_arrow_left
FNDA:1,_RNvNtNtNtCs9VvCb0vlg4r_18infraware_terminal8terminal6events5testss_16test_arrow_right
FNDA:1,_RNvNtNtNtCs9VvCb0vlg4r_18infraware_terminal8terminal6events5testss_16test_ctrl_c_quit
FNDA:1,_RNvNtNtNtCs9VvCb0vlg4r_18infraware_terminal8terminal6events5testss_16test_ctrl_d_quit
FNDA:1,_RNvNtNtNtCs9VvCb0vlg4r_18infraware_terminal8terminal6events5testss_17test_ctrl_l_clear
FNDA:1,_RNvNtNtNtCs9VvCb0vlg4r_18infraware_terminal8terminal6events5testss_18test_default_trait
FNDA:1,_RNvNtNtNtCs9VvCb0vlg4r_18infraware_terminal8terminal6events5testss_18test_map_event_key
FNDA:1,_RNvNtNtNtCs9VvCb0vlg4r_18infraware_terminal8terminal6events5testss_19test_tab_completion
FNDA:1,_RNvNtNtNtCs9VvCb0vlg4r_18infraware_terminal8terminal6events5testss_20test_submit_on_enter
FNDA:1,_RNvNtNtNtCs9VvCb0vlg4r_18infraware_terminal8terminal6events5testss_21test_map_event_resize
FNDA:1,_RNvNtNtNtCs9VvCb0vlg4r_18infraware_terminal8terminal6events5testss_22test_input_char_number
FNDA:1,_RNvNtNtNtCs9VvCb0vlg4r_18infraware_terminal8terminal6events5testss_22test_map_event_unknown
FNDA:1,_RNvNtNtNtCs9VvCb0vlg4r_18infraware_terminal8terminal6events5testss_23test_special_characters
FNDA:1,_RNvNtNtNtCs9VvCb0vlg4r_18infraware_terminal8terminal6events5testss_24test_delete_on_backspace
FNDA:1,_RNvNtNtNtCs9VvCb0vlg4r_18infraware_terminal8terminal6events5testss_25test_input_char_lowercase
FNDA:1,_RNvNtNtNtCs9VvCb0vlg4r_18infraware_terminal8terminal6events5testss_25test_input_char_uppercase
FNDA:1,_RNvNtNtNtCs9VvCb0vlg4r_18infraware_terminal8terminal6events5testss_31test_windows_event_filter_press
FNDA:1,_RNvNtNtNtCs9VvCb0vlg4r_18infraware_terminal8terminal6events5testss_32test_windows_event_filter_repeat
FNDA:1,_RNvNtNtNtCs9VvCb0vlg4r_18infraware_terminal8terminal6events5testss_33test_windows_event_filter_release
FNDA:1,_RNvNtNtNtCs9VvCb0vlg4r_18infraware_terminal8terminal6events5testss_36test_char_with_ctrl_modifier_unknown
FNDA:23,_RNvMNtNtCs9VvCb0vlg4r_18infraware_terminal8terminal6eventsNtB2_12EventHandler13map_key_event
FNDA:24,_RNvMNtNtCs9VvCb0vlg4r_18infraware_terminal8terminal6eventsNtB2_12EventHandler3new
FNDA:3,_RNvMNtNtCs9VvCb0vlg4r_18infraware_terminal8terminal6eventsNtB2_12EventHandler9map_event
FNDA:1,_RNvXs_NtNtCs9VvCb0vlg4r_18infraware_terminal8terminal6eventsNtB4_12EventHandlerNtNtCs5GmCzIpY9Qj_4core7default7Default7default
FNDA:20,_RNvNtNtNtCsdeW3LDTW70x_18infraware_terminal8terminal6events5tests16create_key_event
FNDA:3,_RNvNtNtNtCsdeW3LDTW70x_18infraware_terminal8terminal6events5tests26create_key_event_with_kind
FNDA:1,_RNvNtNtNtCsdeW3LDTW70x_18infraware_terminal8terminal6events5testss_12test_page_up
FNDA:1,_RNvNtNtNtCsdeW3LDTW70x_18infraware_terminal8terminal6events5testss_13test_arrow_up
FNDA:1,_RNvNtNtNtCsdeW3LDTW70x_18infraware_terminal8terminal6events5testss_14test_page_down
FNDA:1,_RNvNtNtNtCsdeW3LDTW70x_18infraware_terminal8terminal6events5testss_15test_arrow_down
FNDA:1,_RNvNtNtNtCsdeW3LDTW70x_18infraware_terminal8terminal6events5testss_15test_arrow_left
FNDA:1,_RNvNtNtNtCsdeW3LDTW70x_18infraware_terminal8terminal6events5testss_16test_arrow_right
FNDA:1,_RNvNtNtNtCsdeW3LDTW70x_18infraware_terminal8terminal6events5testss_16test_ctrl_c_quit
FNDA:1,_RNvNtNtNtCsdeW3LDTW70x_18infraware_terminal8terminal6events5testss_16test_ctrl_d_quit
FNDA:1,_RNvNtNtNtCsdeW3LDTW70x_18infraware_terminal8terminal6events5testss_17test_ctrl_l_clear
FNDA:1,_RNvNtNtNtCsdeW3LDTW70x_18infraware_terminal8terminal6events5testss_18test_default_trait
FNDA:1,_RNvNtNtNtCsdeW3LDTW70x_18infraware_terminal8terminal6events5testss_18test_map_event_key
FNDA:1,_RNvNtNtNtCsdeW3LDTW70x_18infraware_terminal8terminal6events5testss_19test_tab_completion
FNDA:1,_RNvNtNtNtCsdeW3LDTW70x_18infraware_terminal8terminal6events5testss_20test_submit_on_enter
FNDA:1,_RNvNtNtNtCsdeW3LDTW70x_18infraware_terminal8terminal6events5testss_21test_map_event_resize
FNDA:1,_RNvNtNtNtCsdeW3LDTW70x_18infraware_terminal8terminal6events5testss_22test_input_char_number
FNDA:1,_RNvNtNtNtCsdeW3LDTW70x_18infraware_terminal8terminal6events5testss_22test_map_event_unknown
FNDA:1,_RNvNtNtNtCsdeW3LDTW70x_18infraware_terminal8terminal6events5testss_23test_special_characters
FNDA:1,_RNvNtNtNtCsdeW3LDTW70x_18infraware_terminal8terminal6events5testss_24test_delete_on_backspace
FNDA:1,_RNvNtNtNtCsdeW3LDTW70x_18infraware_terminal8terminal6events5testss_25test_input_char_lowercase
FNDA:1,_RNvNtNtNtCsdeW3LDTW70x_18infraware_terminal8terminal6events5testss_25test_input_char_uppercase
FNDA:1,_RNvNtNtNtCsdeW3LDTW70x_18infraware_terminal8terminal6events5testss_31test_windows_event_filter_press
FNDA:1,_RNvNtNtNtCsdeW3LDTW70x_18infraware_terminal8terminal6events5testss_32test_windows_event_filter_repeat
FNDA:1,_RNvNtNtNtCsdeW3LDTW70x_18infraware_terminal8terminal6events5testss_33test_windows_event_filter_release
FNDA:1,_RNvNtNtNtCsdeW3LDTW70x_18infraware_terminal8terminal6events5testss_36test_char_with_ctrl_modifier_unknown
FNDA:23,_RNvMNtNtCsdeW3LDTW70x_18infraware_terminal8terminal6eventsNtB2_12EventHandler13map_key_event
FNDA:24,_RNvMNtNtCsdeW3LDTW70x_18infraware_terminal8terminal6eventsNtB2_12EventHandler3new
FNDA:3,_RNvMNtNtCsdeW3LDTW70x_18infraware_terminal8terminal6eventsNtB2_12EventHandler9map_event
FNDA:1,_RNvXs_NtNtCsdeW3LDTW70x_18infraware_terminal8terminal6eventsNtB4_12EventHandlerNtNtCs5GmCzIpY9Qj_4core7default7Default7default
FNDA:0,_RNvMNtNtCsdeW3LDTW70x_18infraware_terminal8terminal6eventsNtB2_12EventHandler10poll_event
FNF:31
FNH:30
DA:13,48
DA:14,48
DA:15,48
DA:18,0
DA:19,0
DA:20,0
DA:21,0
DA:23,0
DA:25,0
DA:28,6
DA:29,6
DA:30,2
DA:31,2
DA:32,2
DA:34,6
DA:37,46
DA:41,46
DA:42,4
DA:43,42
DA:45,42
DA:47,2
DA:49,2
DA:51,2
DA:54,6
DA:57,2
DA:60,2
DA:61,2
DA:62,2
DA:63,2
DA:66,2
DA:67,2
DA:70,2
DA:73,8
DA:74,4
DA:76,2
DA:78,46
DA:82,2
DA:83,2
DA:84,2
DA:126,40
DA:127,40
DA:128,40
DA:130,6
DA:131,6
DA:132,6
DA:133,6
DA:134,6
DA:135,6
DA:136,6
DA:139,2
DA:140,2
DA:141,2
DA:142,2
DA:143,2
DA:144,2
DA:147,2
DA:148,2
DA:149,2
DA:150,2
DA:151,2
DA:152,2
DA:155,2
DA:156,2
DA:157,2
DA:158,2
DA:159,2
DA:160,2
DA:163,2
DA:164,2
DA:165,2
DA:166,2
DA:167,2
DA:168,2
DA:171,2
DA:172,2
DA:173,2
DA:174,2
DA:175,2
DA:176,2
DA:179,2
DA:180,2
DA:181,2
DA:182,2
DA:183,2
DA:184,2
DA:187,2
DA:188,2
DA:189,2
DA:190,2
DA:191,2
DA:192,2
DA:195,2
DA:196,2
DA:197,2
DA:198,2
DA:199,2
DA:200,2
DA:203,2
DA:204,2
DA:205,2
DA:206,2
DA:207,2
DA:208,2
DA:211,2
DA:212,2
DA:213,2
DA:214,2
DA:215,2
DA:216,2
DA:219,2
DA:220,2
DA:221,2
DA:222,2
DA:223,2
DA:224,2
DA:227,2
DA:228,2
DA:229,2
DA:230,2
DA:231,2
DA:232,2
DA:235,2
DA:236,2
DA:237,2
DA:238,2
DA:239,2
DA:240,2
DA:243,2
DA:244,2
DA:245,2
DA:246,2
DA:247,2
DA:248,2
DA:251,2
DA:252,2
DA:253,2
DA:254,2
DA:255,2
DA:256,2
DA:259,2
DA:260,2
DA:261,2
DA:262,2
DA:264,2
DA:266,2
DA:267,2
DA:268,2
DA:271,2
DA:272,2
DA:273,2
DA:274,2
DA:276,2
DA:278,2
DA:279,2
DA:280,2
DA:283,2
DA:284,2
DA:285,2
DA:286,2
DA:287,2
DA:288,2
DA:289,2
DA:292,2
DA:293,2
DA:294,2
DA:295,2
DA:296,2
DA:297,2
DA:298,2
DA:301,2
DA:302,2
DA:303,2
DA:304,2
DA:305,2
DA:306,2
DA:309,2
DA:310,2
DA:312,2
DA:313,2
DA:314,2
DA:315,2
DA:316,2
DA:317,2
DA:318,2
DA:319,2
DA:320,2
DA:323,2
DA:324,2
DA:325,2
DA:326,2
DA:327,2
DA:328,2
DA:331,2
DA:332,2
DA:334,2
DA:335,2
DA:336,2
DA:337,2
DA:340,2
DA:341,2
DA:344,2
DA:345,2
DA:346,2
DA:349,2
DA:350,2
DA:351,2
DA:352,2
BRF:0
BRH:0
LF:207
LH:201
end_of_record
SF:/home/crist/infraware-terminal/terminal-app/src/terminal/state.rs
FN:40,_RNvMNtNtCskvicDDTzzc8_18infraware_terminal8terminal5stateNtB2_13TerminalState10add_output
FN:68,_RNvMNtNtCskvicDDTzzc8_18infraware_terminal8terminal5stateNtB2_13TerminalState11delete_char
FN:63,_RNvMNtNtCskvicDDTzzc8_18infraware_terminal8terminal5stateNtB2_13TerminalState11insert_char
FN:103,_RNvMNtNtCskvicDDTzzc8_18infraware_terminal8terminal5stateNtB2_13TerminalState11scroll_down
FN:90,_RNvMNtNtCskvicDDTzzc8_18infraware_terminal8terminal5stateNtB2_13TerminalState12history_next
FN:55,_RNvMNtNtCskvicDDTzzc8_18infraware_terminal8terminal5stateNtB2_13TerminalState12submit_input
FN:45,_RNvMNtNtCskvicDDTzzc8_18infraware_terminal8terminal5stateNtB2_13TerminalState16add_output_lines
FN:83,_RNvMNtNtCskvicDDTzzc8_18infraware_terminal8terminal5stateNtB2_13TerminalState16history_previous
FN:73,_RNvMNtNtCskvicDDTzzc8_18infraware_terminal8terminal5stateNtB2_13TerminalState16move_cursor_left
FN:78,_RNvMNtNtCskvicDDTzzc8_18infraware_terminal8terminal5stateNtB2_13TerminalState17move_cursor_right
FN:30,_RNvMNtNtCskvicDDTzzc8_18infraware_terminal8terminal5stateNtB2_13TerminalState3new
FN:98,_RNvMNtNtCskvicDDTzzc8_18infraware_terminal8terminal5stateNtB2_13TerminalState9scroll_up
FN:109,_RNvXs_NtNtCskvicDDTzzc8_18infraware_terminal8terminal5stateNtB4_13TerminalStateNtNtCs5GmCzIpY9Qj_4core7default7Default7default
FN:50,_RNvMNtNtCskvicDDTzzc8_18infraware_terminal8terminal5stateNtB2_13TerminalState11clear_input
FN:50,_RNvMNtNtCs9VvCb0vlg4r_18infraware_terminal8terminal5stateNtB2_13TerminalState11clear_input
FN:68,_RNvMNtNtCs9VvCb0vlg4r_18infraware_terminal8terminal5stateNtB2_13TerminalState11delete_char
FN:63,_RNvMNtNtCs9VvCb0vlg4r_18infraware_terminal8terminal5stateNtB2_13TerminalState11insert_char
FN:103,_RNvMNtNtCs9VvCb0vlg4r_18infraware_terminal8terminal5stateNtB2_13TerminalState11scroll_down
FN:90,_RNvMNtNtCs9VvCb0vlg4r_18infraware_terminal8terminal5stateNtB2_13TerminalState12history_next
FN:55,_RNvMNtNtCs9VvCb0vlg4r_18infraware_terminal8terminal5stateNtB2_13TerminalState12submit_input
FN:83,_RNvMNtNtCs9VvCb0vlg4r_18infraware_terminal8terminal5stateNtB2_13TerminalState16history_previous
FN:73,_RNvMNtNtCs9VvCb0vlg4r_18infraware_terminal8terminal5stateNtB2_13TerminalState16move_cursor_left
FN:78,_RNvMNtNtCs9VvCb0vlg4r_18infraware_terminal8terminal5stateNtB2_13TerminalState17move_cursor_right
FN:98,_RNvMNtNtCs9VvCb0vlg4r_18infraware_terminal8terminal5stateNtB2_13TerminalState9scroll_up
FN:109,_RNvXs_NtNtCs9VvCb0vlg4r_18infraware_terminal8terminal5stateNtB4_13TerminalStateNtNtCs5GmCzIpY9Qj_4core7default7Default7default
FN:40,_RNvMNtNtCs9VvCb0vlg4r_18infraware_terminal8terminal5stateNtB2_13TerminalState10add_output
FN:45,_RNvMNtNtCs9VvCb0vlg4r_18infraware_terminal8terminal5stateNtB2_13TerminalState16add_output_lines
FN:30,_RNvMNtNtCs9VvCb0vlg4r_18infraware_terminal8terminal5stateNtB2_13TerminalState3new
FN:40,_RNvMNtNtCsdeW3LDTW70x_18infraware_terminal8terminal5stateNtB2_13TerminalState10add_output
FN:50,_RNvMNtNtCsdeW3LDTW70x_18infraware_terminal8terminal5stateNtB2_13TerminalState11clear_input
FN:68,_RNvMNtNtCsdeW3LDTW70x_18infraware_terminal8terminal5stateNtB2_13TerminalState11delete_char
FN:63,_RNvMNtNtCsdeW3LDTW70x_18infraware_terminal8terminal5stateNtB2_13TerminalState11insert_char
FN:103,_RNvMNtNtCsdeW3LDTW70x_18infraware_terminal8terminal5stateNtB2_13TerminalState11scroll_down
FN:90,_RNvMNtNtCsdeW3LDTW70x_18infraware_terminal8terminal5stateNtB2_13TerminalState12history_next
FN:55,_RNvMNtNtCsdeW3LDTW70x_18infraware_terminal8terminal5stateNtB2_13TerminalState12submit_input
FN:45,_RNvMNtNtCsdeW3LDTW70x_18infraware_terminal8terminal5stateNtB2_13TerminalState16add_output_lines
FN:83,_RNvMNtNtCsdeW3LDTW70x_18infraware_terminal8terminal5stateNtB2_13TerminalState16history_previous
FN:73,_RNvMNtNtCsdeW3LDTW70x_18infraware_terminal8terminal5stateNtB2_13TerminalState16move_cursor_left
FN:78,_RNvMNtNtCsdeW3LDTW70x_18infraware_terminal8terminal5stateNtB2_13TerminalState17move_cursor_right
FN:30,_RNvMNtNtCsdeW3LDTW70x_18infraware_terminal8terminal5stateNtB2_13TerminalState3new
FN:98,_RNvMNtNtCsdeW3LDTW70x_18infraware_terminal8terminal5stateNtB2_13TerminalState9scroll_up
FN:109,_RNvXs_NtNtCsdeW3LDTW70x_18infraware_terminal8terminal5stateNtB4_13TerminalStateNtNtCs5GmCzIpY9Qj_4core7default7Default7default
FNDA:0,_RNvMNtNtCskvicDDTzzc8_18infraware_terminal8terminal5stateNtB2_13TerminalState10add_output
FNDA:0,_RNvMNtNtCskvicDDTzzc8_18infraware_terminal8terminal5stateNtB2_13TerminalState11delete_char
FNDA:0,_RNvMNtNtCskvicDDTzzc8_18infraware_terminal8terminal5stateNtB2_13TerminalState11insert_char
FNDA:0,_RNvMNtNtCskvicDDTzzc8_18infraware_terminal8terminal5stateNtB2_13TerminalState11scroll_down
FNDA:0,_RNvMNtNtCskvicDDTzzc8_18infraware_terminal8terminal5stateNtB2_13TerminalState12history_next
FNDA:0,_RNvMNtNtCskvicDDTzzc8_18infraware_terminal8terminal5stateNtB2_13TerminalState12submit_input
FNDA:0,_RNvMNtNtCskvicDDTzzc8_18infraware_terminal8terminal5stateNtB2_13TerminalState16add_output_lines
FNDA:0,_RNvMNtNtCskvicDDTzzc8_18infraware_terminal8terminal5stateNtB2_13TerminalState16history_previous
FNDA:0,_RNvMNtNtCskvicDDTzzc8_18infraware_terminal8terminal5stateNtB2_13TerminalState16move_cursor_left
FNDA:0,_RNvMNtNtCskvicDDTzzc8_18infraware_terminal8terminal5stateNtB2_13TerminalState17move_cursor_right
FNDA:0,_RNvMNtNtCskvicDDTzzc8_18infraware_terminal8terminal5stateNtB2_13TerminalState3new
FNDA:0,_RNvMNtNtCskvicDDTzzc8_18infraware_terminal8terminal5stateNtB2_13TerminalState9scroll_up
FNDA:0,_RNvXs_NtNtCskvicDDTzzc8_18infraware_terminal8terminal5stateNtB4_13TerminalStateNtNtCs5GmCzIpY9Qj_4core7default7Default7default
FNDA:0,_RNvMNtNtCskvicDDTzzc8_18infraware_terminal8terminal5stateNtB2_13TerminalState11clear_input
FNDA:0,_RNvMNtNtCs9VvCb0vlg4r_18infraware_terminal8terminal5stateNtB2_13TerminalState11clear_input
FNDA:0,_RNvMNtNtCs9VvCb0vlg4r_18infraware_terminal8terminal5stateNtB2_13TerminalState11delete_char
FNDA:0,_RNvMNtNtCs9VvCb0vlg4r_18infraware_terminal8terminal5stateNtB2_13TerminalState11insert_char
FNDA:0,_RNvMNtNtCs9VvCb0vlg4r_18infraware_terminal8terminal5stateNtB2_13TerminalState11scroll_down
FNDA:0,_RNvMNtNtCs9VvCb0vlg4r_18infraware_terminal8terminal5stateNtB2_13TerminalState12history_next
FNDA:0,_RNvMNtNtCs9VvCb0vlg4r_18infraware_terminal8terminal5stateNtB2_13TerminalState12submit_input
FNDA:0,_RNvMNtNtCs9VvCb0vlg4r_18infraware_terminal8terminal5stateNtB2_13TerminalState16history_previous
FNDA:0,_RNvMNtNtCs9VvCb0vlg4r_18infraware_terminal8terminal5stateNtB2_13TerminalState16move_cursor_left
FNDA:0,_RNvMNtNtCs9VvCb0vlg4r_18infraware_terminal8terminal5stateNtB2_13TerminalState17move_cursor_right
FNDA:0,_RNvMNtNtCs9VvCb0vlg4r_18infraware_terminal8terminal5stateNtB2_13TerminalState9scroll_up
FNDA:0,_RNvXs_NtNtCs9VvCb0vlg4r_18infraware_terminal8terminal5stateNtB4_13TerminalStateNtNtCs5GmCzIpY9Qj_4core7default7Default7default
FNDA:14,_RNvMNtNtCs9VvCb0vlg4r_18infraware_terminal8terminal5stateNtB2_13TerminalState10add_output
FNDA:4,_RNvMNtNtCs9VvCb0vlg4r_18infraware_terminal8terminal5stateNtB2_13TerminalState16add_output_lines
FNDA:17,_RNvMNtNtCs9VvCb0vlg4r_18infraware_terminal8terminal5stateNtB2_13TerminalState3new
FNDA:0,_RNvMNtNtCsdeW3LDTW70x_18infraware_terminal8terminal5stateNtB2_13TerminalState10add_output
FNDA:0,_RNvMNtNtCsdeW3LDTW70x_18infraware_terminal8terminal5stateNtB2_13TerminalState11clear_input
FNDA:0,_RNvMNtNtCsdeW3LDTW70x_18infraware_terminal8terminal5stateNtB2_13TerminalState11delete_char
FNDA:0,_RNvMNtNtCsdeW3LDTW70x_18infraware_terminal8terminal5stateNtB2_13TerminalState11insert_char
FNDA:0,_RNvMNtNtCsdeW3LDTW70x_18infraware_terminal8terminal5stateNtB2_13TerminalState11scroll_down
FNDA:0,_RNvMNtNtCsdeW3LDTW70x_18infraware_terminal8terminal5stateNtB2_13TerminalState12history_next
FNDA:0,_RNvMNtNtCsdeW3LDTW70x_18infraware_terminal8terminal5stateNtB2_13TerminalState12submit_input
FNDA:0,_RNvMNtNtCsdeW3LDTW70x_18infraware_terminal8terminal5stateNtB2_13TerminalState16add_output_lines
FNDA:0,_RNvMNtNtCsdeW3LDTW70x_18infraware_terminal8terminal5stateNtB2_13TerminalState16history_previous
FNDA:0,_RNvMNtNtCsdeW3LDTW70x_18infraware_terminal8terminal5stateNtB2_13TerminalState16move_cursor_left
FNDA:0,_RNvMNtNtCsdeW3LDTW70x_18infraware_terminal8terminal5stateNtB2_13TerminalState17move_cursor_right
FNDA:0,_RNvMNtNtCsdeW3LDTW70x_18infraware_terminal8terminal5stateNtB2_13TerminalState3new
FNDA:0,_RNvMNtNtCsdeW3LDTW70x_18infraware_terminal8terminal5stateNtB2_13TerminalState9scroll_up
FNDA:0,_RNvXs_NtNtCsdeW3LDTW70x_18infraware_terminal8terminal5stateNtB4_13TerminalStateNtNtCs5GmCzIpY9Qj_4core7default7Default7default
FNF:14
FNH:3
DA:30,17
DA:31,17
DA:32,17
DA:33,17
DA:34,17
DA:35,17
DA:36,17
DA:37,17
DA:40,14
DA:41,14
DA:42,14
DA:45,4
DA:46,4
DA:47,4
DA:50,0
DA:51,0
DA:52,0
DA:55,0
DA:56,0
DA:57,0
DA:58,0
DA:59,0
DA:60,0
DA:63,0
DA:64,0
DA:65,0
DA:68,0
DA:69,0
DA:70,0
DA:73,0
DA:74,0
DA:75,0
DA:78,0
DA:79,0
DA:80,0
DA:83,0
DA:84,0
DA:85,0
DA:86,0
DA:87,0
DA:90,0
DA:91,0
DA:92,0
DA:93,0
DA:95,0
DA:98,0
DA:99,0
DA:100,0
DA:103,0
DA:104,0
DA:105,0
DA:109,0
DA:110,0
DA:111,0
BRF:0
BRH:0
LF:54
LH:14
end_of_record
SF:/home/crist/infraware-terminal/terminal-app/src/terminal/tui.rs
FN:68,_RNvXs0_NtNtCsgbM7bOyfJDi_18infraware_terminal8terminal3tuiNtB5_10TerminalUINtNtNtCs5GmCzIpY9Qj_4core3ops4drop4Drop4drop
FN:119,_RNCNCNvNtNtCsgbM7bOyfJDi_18infraware_terminal8terminal3tui13render_output00B9_
FN:46,_RNCNvMs_NtNtCsgbM7bOyfJDi_18infraware_terminal8terminal3tuiNtB6_10TerminalUI6render0Ba_
FN:111,_RNCNvNtNtCsgbM7bOyfJDi_18infraware_terminal8terminal3tui13render_output0B7_
FN:34,_RNvMs_NtNtCsgbM7bOyfJDi_18infraware_terminal8terminal3tuiNtB4_10TerminalUI3new
FN:53,_RNvMs_NtNtCsgbM7bOyfJDi_18infraware_terminal8terminal3tuiNtB4_10TerminalUI5clear
FN:45,_RNvMs_NtNtCsgbM7bOyfJDi_18infraware_terminal8terminal3tuiNtB4_10TerminalUI6render
FN:59,_RNvMs_NtNtCsgbM7bOyfJDi_18infraware_terminal8terminal3tuiNtB4_10TerminalUI7cleanup
FN:74,_RNvNtNtCsgbM7bOyfJDi_18infraware_terminal8terminal3tui12render_frame
FN:174,_RNvNtNtCsgbM7bOyfJDi_18infraware_terminal8terminal3tui12render_input
FN:98,_RNvNtNtCsgbM7bOyfJDi_18infraware_terminal8terminal3tui13render_output
FN:139,_RNvNtNtCsgbM7bOyfJDi_18infraware_terminal8terminal3tui17render_status_bar
FN:25,_RNvXNtNtCsgbM7bOyfJDi_18infraware_terminal8terminal3tuiNtB2_10TerminalUINtNtCs5GmCzIpY9Qj_4core3fmt5Debug3fmt
FN:25,_RNvXNtNtCskvicDDTzzc8_18infraware_terminal8terminal3tuiNtB2_10TerminalUINtNtCs5GmCzIpY9Qj_4core3fmt5Debug3fmt
FN:119,_RNCNCNvNtNtCskvicDDTzzc8_18infraware_terminal8terminal3tui13render_output00B9_
FN:46,_RNCNvMs_NtNtCskvicDDTzzc8_18infraware_terminal8terminal3tuiNtB6_10TerminalUI6render0Ba_
FN:111,_RNCNvNtNtCskvicDDTzzc8_18infraware_terminal8terminal3tui13render_output0B7_
FN:68,_RNvXs0_NtNtCskvicDDTzzc8_18infraware_terminal8terminal3tuiNtB5_10TerminalUINtNtNtCs5GmCzIpY9Qj_4core3ops4drop4Drop4drop
FN:34,_RNvMs_NtNtCskvicDDTzzc8_18infraware_terminal8terminal3tuiNtB4_10TerminalUI3new
FN:53,_RNvMs_NtNtCskvicDDTzzc8_18infraware_terminal8terminal3tuiNtB4_10TerminalUI5clear
FN:45,_RNvMs_NtNtCskvicDDTzzc8_18infraware_terminal8terminal3tuiNtB4_10TerminalUI6render
FN:59,_RNvMs_NtNtCskvicDDTzzc8_18infraware_terminal8terminal3tuiNtB4_10TerminalUI7cleanup
FN:74,_RNvNtNtCskvicDDTzzc8_18infraware_terminal8terminal3tui12render_frame
FN:174,_RNvNtNtCskvicDDTzzc8_18infraware_terminal8terminal3tui12render_input
FN:98,_RNvNtNtCskvicDDTzzc8_18infraware_terminal8terminal3tui13render_output
FN:139,_RNvNtNtCskvicDDTzzc8_18infraware_terminal8terminal3tui17render_status_bar
FN:119,_RNCNCNvNtNtCs9VvCb0vlg4r_18infraware_terminal8terminal3tui13render_output00B9_
FN:46,_RNCNvMs_NtNtCs9VvCb0vlg4r_18infraware_terminal8terminal3tuiNtB6_10TerminalUI6render0Ba_
FN:111,_RNCNvNtNtCs9VvCb0vlg4r_18infraware_terminal8terminal3tui13render_output0B7_
FN:34,_RNvMs_NtNtCs9VvCb0vlg4r_18infraware_terminal8terminal3tuiNtB4_10TerminalUI3new
FN:53,_RNvMs_NtNtCs9VvCb0vlg4r_18infraware_terminal8terminal3tuiNtB4_10TerminalUI5clear
FN:45,_RNvMs_NtNtCs9VvCb0vlg4r_18infraware_terminal8terminal3tuiNtB4_10TerminalUI6render
FN:59,_RNvMs_NtNtCs9VvCb0vlg4r_18infraware_terminal8terminal3tuiNtB4_10TerminalUI7cleanup
FN:74,_RNvNtNtCs9VvCb0vlg4r_18infraware_terminal8terminal3tui12render_frame
FN:174,_RNvNtNtCs9VvCb0vlg4r_18infraware_terminal8terminal3tui12render_input
FN:98,_RNvNtNtCs9VvCb0vlg4r_18infraware_terminal8terminal3tui13render_output
FN:139,_RNvNtNtCs9VvCb0vlg4r_18infraware_terminal8terminal3tui17render_status_bar
FN:25,_RNvXNtNtCs9VvCb0vlg4r_18infraware_terminal8terminal3tuiNtB2_10TerminalUINtNtCs5GmCzIpY9Qj_4core3fmt5Debug3fmt
FN:68,_RNvXs0_NtNtCs9VvCb0vlg4r_18infraware_terminal8terminal3tuiNtB5_10TerminalUINtNtNtCs5GmCzIpY9Qj_4core3ops4drop4Drop4drop
FN:119,_RNCNCNvNtNtCsdeW3LDTW70x_18infraware_terminal8terminal3tui13render_output00B9_
FN:46,_RNCNvMs_NtNtCsdeW3LDTW70x_18infraware_terminal8terminal3tuiNtB6_10TerminalUI6render0Ba_
FN:111,_RNCNvNtNtCsdeW3LDTW70x_18infraware_terminal8terminal3tui13render_output0B7_
FN:34,_RNvMs_NtNtCsdeW3LDTW70x_18infraware_terminal8terminal3tuiNtB4_10TerminalUI3new
FN:53,_RNvMs_NtNtCsdeW3LDTW70x_18infraware_terminal8terminal3tuiNtB4_10TerminalUI5clear
FN:45,_RNvMs_NtNtCsdeW3LDTW70x_18infraware_terminal8terminal3tuiNtB4_10TerminalUI6render
FN:59,_RNvMs_NtNtCsdeW3LDTW70x_18infraware_terminal8terminal3tuiNtB4_10TerminalUI7cleanup
FN:74,_RNvNtNtCsdeW3LDTW70x_18infraware_terminal8terminal3tui12render_frame
FN:174,_RNvNtNtCsdeW3LDTW70x_18infraware_terminal8terminal3tui12render_input
FN:98,_RNvNtNtCsdeW3LDTW70x_18infraware_terminal8terminal3tui13render_output
FN:139,_RNvNtNtCsdeW3LDTW70x_18infraware_terminal8terminal3tui17render_status_bar
FN:25,_RNvXNtNtCsdeW3LDTW70x_18infraware_terminal8terminal3tuiNtB2_10TerminalUINtNtCs5GmCzIpY9Qj_4core3fmt5Debug3fmt
FN:68,_RNvXs0_NtNtCsdeW3LDTW70x_18infraware_terminal8terminal3tuiNtB5_10TerminalUINtNtNtCs5GmCzIpY9Qj_4core3ops4drop4Drop4drop
FNDA:0,_RNvXs0_NtNtCsgbM7bOyfJDi_18infraware_terminal8terminal3tuiNtB5_10TerminalUINtNtNtCs5GmCzIpY9Qj_4core3ops4drop4Drop4drop
FNDA:0,_RNCNCNvNtNtCsgbM7bOyfJDi_18infraware_terminal8terminal3tui13render_output00B9_
FNDA:0,_RNCNvMs_NtNtCsgbM7bOyfJDi_18infraware_terminal8terminal3tuiNtB6_10TerminalUI6render0Ba_
FNDA:0,_RNCNvNtNtCsgbM7bOyfJDi_18infraware_terminal8terminal3tui13render_output0B7_
FNDA:0,_RNvMs_NtNtCsgbM7bOyfJDi_18infraware_terminal8terminal3tuiNtB4_10TerminalUI3new
FNDA:0,_RNvMs_NtNtCsgbM7bOyfJDi_18infraware_terminal8terminal3tuiNtB4_10TerminalUI5clear
FNDA:0,_RNvMs_NtNtCsgbM7bOyfJDi_18infraware_terminal8terminal3tuiNtB4_10TerminalUI6render
FNDA:0,_RNvMs_NtNtCsgbM7bOyfJDi_18infraware_terminal8terminal3tuiNtB4_10TerminalUI7cleanup
FNDA:0,_RNvNtNtCsgbM7bOyfJDi_18infraware_terminal8terminal3tui12render_frame
FNDA:0,_RNvNtNtCsgbM7bOyfJDi_18infraware_terminal8terminal3tui12render_input
FNDA:0,_RNvNtNtCsgbM7bOyfJDi_18infraware_terminal8terminal3tui13render_output
FNDA:0,_RNvNtNtCsgbM7bOyfJDi_18infraware_terminal8terminal3tui17render_status_bar
FNDA:0,_RNvXNtNtCsgbM7bOyfJDi_18infraware_terminal8terminal3tuiNtB2_10TerminalUINtNtCs5GmCzIpY9Qj_4core3fmt5Debug3fmt
FNDA:0,_RNvXNtNtCskvicDDTzzc8_18infraware_terminal8terminal3tuiNtB2_10TerminalUINtNtCs5GmCzIpY9Qj_4core3fmt5Debug3fmt
FNDA:0,_RNCNCNvNtNtCskvicDDTzzc8_18infraware_terminal8terminal3tui13render_output00B9_
FNDA:0,_RNCNvMs_NtNtCskvicDDTzzc8_18infraware_terminal8terminal3tuiNtB6_10TerminalUI6render0Ba_
FNDA:0,_RNCNvNtNtCskvicDDTzzc8_18infraware_terminal8terminal3tui13render_output0B7_
FNDA:0,_RNvXs0_NtNtCskvicDDTzzc8_18infraware_terminal8terminal3tuiNtB5_10TerminalUINtNtNtCs5GmCzIpY9Qj_4core3ops4drop4Drop4drop
FNDA:0,_RNvMs_NtNtCskvicDDTzzc8_18infraware_terminal8terminal3tuiNtB4_10TerminalUI3new
FNDA:0,_RNvMs_NtNtCskvicDDTzzc8_18infraware_terminal8terminal3tuiNtB4_10TerminalUI5clear
FNDA:0,_RNvMs_NtNtCskvicDDTzzc8_18infraware_terminal8terminal3tuiNtB4_10TerminalUI6render
FNDA:0,_RNvMs_NtNtCskvicDDTzzc8_18infraware_terminal8terminal3tuiNtB4_10TerminalUI7cleanup
FNDA:0,_RNvNtNtCskvicDDTzzc8_18infraware_terminal8terminal3tui12render_frame
FNDA:0,_RNvNtNtCskvicDDTzzc8_18infraware_terminal8terminal3tui12render_input
FNDA:0,_RNvNtNtCskvicDDTzzc8_18infraware_terminal8terminal3tui13render_output
FNDA:0,_RNvNtNtCskvicDDTzzc8_18infraware_terminal8terminal3tui17render_status_bar
FNDA:0,_RNCNCNvNtNtCs9VvCb0vlg4r_18infraware_terminal8terminal3tui13render_output00B9_
FNDA:0,_RNCNvMs_NtNtCs9VvCb0vlg4r_18infraware_terminal8terminal3tuiNtB6_10TerminalUI6render0Ba_
FNDA:0,_RNCNvNtNtCs9VvCb0vlg4r_18infraware_terminal8terminal3tui13render_output0B7_
FNDA:0,_RNvMs_NtNtCs9VvCb0vlg4r_18infraware_terminal8terminal3tuiNtB4_10TerminalUI3new
FNDA:0,_RNvMs_NtNtCs9VvCb0vlg4r_18infraware_terminal8terminal3tuiNtB4_10TerminalUI5clear
FNDA:0,_RNvMs_NtNtCs9VvCb0vlg4r_18infraware_terminal8terminal3tuiNtB4_10TerminalUI6render
FNDA:0,_RNvMs_NtNtCs9VvCb0vlg4r_18infraware_terminal8terminal3tuiNtB4_10TerminalUI7cleanup
FNDA:0,_RNvNtNtCs9VvCb0vlg4r_18infraware_terminal8terminal3tui12render_frame
FNDA:0,_RNvNtNtCs9VvCb0vlg4r_18infraware_terminal8terminal3tui12render_input
FNDA:0,_RNvNtNtCs9VvCb0vlg4r_18infraware_terminal8terminal3tui13render_output
FNDA:0,_RNvNtNtCs9VvCb0vlg4r_18infraware_terminal8terminal3tui17render_status_bar
FNDA:0,_RNvXNtNtCs9VvCb0vlg4r_18infraware_terminal8terminal3tuiNtB2_10TerminalUINtNtCs5GmCzIpY9Qj_4core3fmt5Debug3fmt
FNDA:0,_RNvXs0_NtNtCs9VvCb0vlg4r_18infraware_terminal8terminal3tuiNtB5_10TerminalUINtNtNtCs5GmCzIpY9Qj_4core3ops4drop4Drop4drop
FNDA:0,_RNCNCNvNtNtCsdeW3LDTW70x_18infraware_terminal8terminal3tui13render_output00B9_
FNDA:0,_RNCNvMs_NtNtCsdeW3LDTW70x_18infraware_terminal8terminal3tuiNtB6_10TerminalUI6render0Ba_
FNDA:0,_RNCNvNtNtCsdeW3LDTW70x_18infraware_terminal8terminal3tui13render_output0B7_
FNDA:0,_RNvMs_NtNtCsdeW3LDTW70x_18infraware_terminal8terminal3tuiNtB4_10TerminalUI3new
FNDA:0,_RNvMs_NtNtCsdeW3LDTW70x_18infraware_terminal8terminal3tuiNtB4_10TerminalUI5clear
FNDA:0,_RNvMs_NtNtCsdeW3LDTW70x_18infraware_terminal8terminal3tuiNtB4_10TerminalUI6render
FNDA:0,_RNvMs_NtNtCsdeW3LDTW70x_18infraware_terminal8terminal3tuiNtB4_10TerminalUI7cleanup
FNDA:0,_RNvNtNtCsdeW3LDTW70x_18infraware_terminal8terminal3tui12render_frame
FNDA:0,_RNvNtNtCsdeW3LDTW70x_18infraware_terminal8terminal3tui12render_input
FNDA:0,_RNvNtNtCsdeW3LDTW70x_18infraware_terminal8terminal3tui13render_output
FNDA:0,_RNvNtNtCsdeW3LDTW70x_18infraware_terminal8terminal3tui17render_status_bar
FNDA:0,_RNvXNtNtCsdeW3LDTW70x_18infraware_terminal8terminal3tuiNtB2_10TerminalUINtNtCs5GmCzIpY9Qj_4core3fmt5Debug3fmt
FNDA:0,_RNvXs0_NtNtCsdeW3LDTW70x_18infraware_terminal8terminal3tuiNtB5_10TerminalUINtNtNtCs5GmCzIpY9Qj_4core3ops4drop4Drop4drop
FNF:13
FNH:0
DA:25,0
DA:26,0
DA:27,0
DA:28,0
DA:29,0
DA:34,0
DA:35,0
DA:36,0
DA:37,0
DA:38,0
DA:39,0
DA:41,0
DA:42,0
DA:45,0
DA:46,0
DA:47,0
DA:48,0
DA:49,0
DA:50,0
DA:53,0
DA:54,0
DA:55,0
DA:56,0
DA:59,0
DA:60,0
DA:61,0
DA:62,0
DA:63,0
DA:64,0
DA:68,0
DA:69,0
DA:70,0
DA:74,0
DA:75,0
DA:78,0
DA:79,0
DA:80,0
DA:81,0
DA:82,0
DA:83,0
DA:84,0
DA:85,0
DA:88,0
DA:91,0
DA:94,0
DA:95,0
DA:98,0
DA:99,0
DA:100,0
DA:102,0
DA:106,0
DA:107,0
DA:109,0
DA:110,0
DA:111,0
DA:114,0
DA:115,0
DA:116,0
DA:117,0
DA:118,0
DA:119,0
DA:120,0
DA:122,0
DA:123,0
DA:126,0
DA:127,0
DA:128,0
DA:129,0
DA:130,0
DA:131,0
DA:133,0
DA:135,0
DA:136,0
DA:139,0
DA:140,0
DA:141,0
DA:142,0
DA:143,0
DA:144,0
DA:147,0
DA:148,0
DA:149,0
DA:150,0
DA:151,0
DA:154,0
DA:155,0
DA:156,0
DA:157,0
DA:158,0
DA:159,0
DA:160,0
DA:162,0
DA:163,0
DA:164,0
DA:165,0
DA:169,0
DA:170,0
DA:171,0
DA:174,0
DA:175,0
DA:176,0
DA:178,0
DA:179,0
DA:180,0
DA:182,0
DA:185,0
DA:186,0
DA:187,0
DA:188,0
DA:189,0
DA:192,0
DA:195,0
DA:196,0
DA:197,0
DA:198,0
DA:199,0
BRF:0
BRH:0
LF:120
LH:0
end_of_record
SF:/home/crist/infraware-terminal/terminal-app/src/utils/ansi.rs
FN:110,_RNCNvNtNtCsgbM7bOyfJDi_18infraware_terminal5utils4ansi16strip_ansi_codes0B7_
FN:110,_RNCNvNtNtCskvicDDTzzc8_18infraware_terminal5utils4ansi16strip_ansi_codes0B7_
FN:86,_RNvMs0_NtNtCskvicDDTzzc8_18infraware_terminal5utils4ansiNtB5_9AnsiStyle3dim
FN:81,_RNvMs0_NtNtCskvicDDTzzc8_18infraware_terminal5utils4ansiNtB5_9AnsiStyle4bold
FN:91,_RNvMs0_NtNtCskvicDDTzzc8_18infraware_terminal5utils4ansiNtB5_9AnsiStyle6italic
FN:96,_RNvMs0_NtNtCskvicDDTzzc8_18infraware_terminal5utils4ansiNtB5_9AnsiStyle9underline
FN:108,_RNvNtNtCskvicDDTzzc8_18infraware_terminal5utils4ansi16strip_ansi_codes
FN:59,_RNvXs_NtNtCskvicDDTzzc8_18infraware_terminal5utils4ansiNtB4_9AnsiColorNtNtCs5GmCzIpY9Qj_4core3fmt7Display3fmt
FN:30,_RNvMNtNtCskvicDDTzzc8_18infraware_terminal5utils4ansiNtB2_9AnsiColor4code
FN:53,_RNvMNtNtCskvicDDTzzc8_18infraware_terminal5utils4ansiNtB2_9AnsiColor8colorize
FN:30,_RNvMNtNtCs9VvCb0vlg4r_18infraware_terminal5utils4ansiNtB2_9AnsiColor4code
FN:53,_RNvMNtNtCs9VvCb0vlg4r_18infraware_terminal5utils4ansiNtB2_9AnsiColor8colorize
FN:86,_RNvMs0_NtNtCs9VvCb0vlg4r_18infraware_terminal5utils4ansiNtB5_9AnsiStyle3dim
FN:81,_RNvMs0_NtNtCs9VvCb0vlg4r_18infraware_terminal5utils4ansiNtB5_9AnsiStyle4bold
FN:91,_RNvMs0_NtNtCs9VvCb0vlg4r_18infraware_terminal5utils4ansiNtB5_9AnsiStyle6italic
FN:96,_RNvMs0_NtNtCs9VvCb0vlg4r_18infraware_terminal5utils4ansiNtB5_9AnsiStyle9underline
FN:108,_RNvNtNtCs9VvCb0vlg4r_18infraware_terminal5utils4ansi16strip_ansi_codes
FN:59,_RNvXs_NtNtCs9VvCb0vlg4r_18infraware_terminal5utils4ansiNtB4_9AnsiColorNtNtCs5GmCzIpY9Qj_4core3fmt7Display3fmt
FN:223,_RNvNtNtNtCs9VvCb0vlg4r_18infraware_terminal5utils4ansi5testss_11test_italic
FN:119,_RNvNtNtNtCs9VvCb0vlg4r_18infraware_terminal5utils4ansi5testss_13test_colorize
FN:231,_RNvNtNtNtCs9VvCb0vlg4r_18infraware_terminal5utils4ansi5testss_14test_underline
FN:143,_RNvNtNtNtCs9VvCb0vlg4r_18infraware_terminal5utils4ansi5testss_16test_color_codes
FN:267,_RNvNtNtNtCs9VvCb0vlg4r_18infraware_terminal5utils4ansi5testss_16test_color_debug
FN:208,_RNvNtNtNtCs9VvCb0vlg4r_18infraware_terminal5utils4ansi5testss_18test_display_trait
FN:261,_RNvNtNtNtCs9VvCb0vlg4r_18infraware_terminal5utils4ansi5testss_19test_color_equality
FN:135,_RNvNtNtNtCs9VvCb0vlg4r_18infraware_terminal5utils4ansi5testss_21test_strip_ansi_codes
FN:156,_RNvNtNtNtCs9VvCb0vlg4r_18infraware_terminal5utils4ansi5testss_23test_bright_color_codes
FN:168,_RNvNtNtNtCs9VvCb0vlg4r_18infraware_terminal5utils4ansi5testss_24test_colorize_all_colors
FN:256,_RNvNtNtNtCs9VvCb0vlg4r_18infraware_terminal5utils4ansi5testss_26test_strip_ansi_plain_text
FN:188,_RNvNtNtNtCs9VvCb0vlg4r_18infraware_terminal5utils4ansi5testss_27test_colorize_bright_colors
FN:251,_RNvNtNtNtCs9VvCb0vlg4r_18infraware_terminal5utils4ansi5testss_28test_strip_ansi_empty_string
FN:239,_RNvNtNtNtCs9VvCb0vlg4r_18infraware_terminal5utils4ansi5testss_30test_strip_ansi_multiple_codes
FN:215,_RNvNtNtNtCs9VvCb0vlg4r_18infraware_terminal5utils4ansi5testss_8test_dim
FN:127,_RNvNtNtNtCs9VvCb0vlg4r_18infraware_terminal5utils4ansi5testss_9test_bold
FN:110,_RNCNvNtNtCs9VvCb0vlg4r_18infraware_terminal5utils4ansi16strip_ansi_codes0B7_
FN:110,_RNCNvNtNtCsdeW3LDTW70x_18infraware_terminal5utils4ansi16strip_ansi_codes0B7_
FN:30,_RNvMNtNtCsdeW3LDTW70x_18infraware_terminal5utils4ansiNtB2_9AnsiColor4code
FN:53,_RNvMNtNtCsdeW3LDTW70x_18infraware_terminal5utils4ansiNtB2_9AnsiColor8colorize
FN:86,_RNvMs0_NtNtCsdeW3LDTW70x_18infraware_terminal5utils4ansiNtB5_9AnsiStyle3dim
FN:81,_RNvMs0_NtNtCsdeW3LDTW70x_18infraware_terminal5utils4ansiNtB5_9AnsiStyle4bold
FN:91,_RNvMs0_NtNtCsdeW3LDTW70x_18infraware_terminal5utils4ansiNtB5_9AnsiStyle6italic
FN:96,_RNvMs0_NtNtCsdeW3LDTW70x_18infraware_terminal5utils4ansiNtB5_9AnsiStyle9underline
FN:108,_RNvNtNtCsdeW3LDTW70x_18infraware_terminal5utils4ansi16strip_ansi_codes
FN:59,_RNvXs_NtNtCsdeW3LDTW70x_18infraware_terminal5utils4ansiNtB4_9AnsiColorNtNtCs5GmCzIpY9Qj_4core3fmt7Display3fmt
FN:223,_RNvNtNtNtCsdeW3LDTW70x_18infraware_terminal5utils4ansi5testss_11test_italic
FN:119,_RNvNtNtNtCsdeW3LDTW70x_18infraware_terminal5utils4ansi5testss_13test_colorize
FN:231,_RNvNtNtNtCsdeW3LDTW70x_18infraware_terminal5utils4ansi5testss_14test_underline
FN:143,_RNvNtNtNtCsdeW3LDTW70x_18infraware_terminal5utils4ansi5testss_16test_color_codes
FN:267,_RNvNtNtNtCsdeW3LDTW70x_18infraware_terminal5utils4ansi5testss_16test_color_debug
FN:208,_RNvNtNtNtCsdeW3LDTW70x_18infraware_terminal5utils4ansi5testss_18test_display_trait
FN:261,_RNvNtNtNtCsdeW3LDTW70x_18infraware_terminal5utils4ansi5testss_19test_color_equality
FN:135,_RNvNtNtNtCsdeW3LDTW70x_18infraware_terminal5utils4ansi5testss_21test_strip_ansi_codes
FN:156,_RNvNtNtNtCsdeW3LDTW70x_18infraware_terminal5utils4ansi5testss_23test_bright_color_codes
FN:168,_RNvNtNtNtCsdeW3LDTW70x_18infraware_terminal5utils4ansi5testss_24test_colorize_all_colors
FN:256,_RNvNtNtNtCsdeW3LDTW70x_18infraware_terminal5utils4ansi5testss_26test_strip_ansi_plain_text
FN:188,_RNvNtNtNtCsdeW3LDTW70x_18infraware_terminal5utils4ansi5testss_27test_colorize_bright_colors
FN:251,_RNvNtNtNtCsdeW3LDTW70x_18infraware_terminal5utils4ansi5testss_28test_strip_ansi_empty_string
FN:239,_RNvNtNtNtCsdeW3LDTW70x_18infraware_terminal5utils4ansi5testss_30test_strip_ansi_multiple_codes
FN:215,_RNvNtNtNtCsdeW3LDTW70x_18infraware_terminal5utils4ansi5testss_8test_dim
FN:127,_RNvNtNtNtCsdeW3LDTW70x_18infraware_terminal5utils4ansi5testss_9test_bold
FNDA:0,_RNCNvNtNtCsgbM7bOyfJDi_18infraware_terminal5utils4ansi16strip_ansi_codes0B7_
FNDA:0,_RNCNvNtNtCskvicDDTzzc8_18infraware_terminal5utils4ansi16strip_ansi_codes0B7_
FNDA:0,_RNvMs0_NtNtCskvicDDTzzc8_18infraware_terminal5utils4ansiNtB5_9AnsiStyle3dim
FNDA:0,_RNvMs0_NtNtCskvicDDTzzc8_18infraware_terminal5utils4ansiNtB5_9AnsiStyle4bold
FNDA:0,_RNvMs0_NtNtCskvicDDTzzc8_18infraware_terminal5utils4ansiNtB5_9AnsiStyle6italic
FNDA:0,_RNvMs0_NtNtCskvicDDTzzc8_18infraware_terminal5utils4ansiNtB5_9AnsiStyle9underline
FNDA:0,_RNvNtNtCskvicDDTzzc8_18infraware_terminal5utils4ansi16strip_ansi_codes
FNDA:0,_RNvXs_NtNtCskvicDDTzzc8_18infraware_terminal5utils4ansiNtB4_9AnsiColorNtNtCs5GmCzIpY9Qj_4core3fmt7Display3fmt
FNDA:0,_RNvMNtNtCskvicDDTzzc8_18infraware_terminal5utils4ansiNtB2_9AnsiColor4code
FNDA:0,_RNvMNtNtCskvicDDTzzc8_18infraware_terminal5utils4ansiNtB2_9AnsiColor8colorize
FNDA:126,_RNvMNtNtCs9VvCb0vlg4r_18infraware_terminal5utils4ansiNtB2_9AnsiColor4code
FNDA:53,_RNvMNtNtCs9VvCb0vlg4r_18infraware_terminal5utils4ansiNtB2_9AnsiColor8colorize
FNDA:1,_RNvMs0_NtNtCs9VvCb0vlg4r_18infraware_terminal5utils4ansiNtB5_9AnsiStyle3dim
FNDA:2,_RNvMs0_NtNtCs9VvCb0vlg4r_18infraware_terminal5utils4ansiNtB5_9AnsiStyle4bold
FNDA:1,_RNvMs0_NtNtCs9VvCb0vlg4r_18infraware_terminal5utils4ansiNtB5_9AnsiStyle6italic
FNDA:1,_RNvMs0_NtNtCs9VvCb0vlg4r_18infraware_terminal5utils4ansiNtB5_9AnsiStyle9underline
FNDA:4,_RNvNtNtCs9VvCb0vlg4r_18infraware_terminal5utils4ansi16strip_ansi_codes
FNDA:3,_RNvXs_NtNtCs9VvCb0vlg4r_18infraware_terminal5utils4ansiNtB4_9AnsiColorNtNtCs5GmCzIpY9Qj_4core3fmt7Display3fmt
FNDA:1,_RNvNtNtNtCs9VvCb0vlg4r_18infraware_terminal5utils4ansi5testss_11test_italic
FNDA:1,_RNvNtNtNtCs9VvCb0vlg4r_18infraware_terminal5utils4ansi5testss_13test_colorize
FNDA:1,_RNvNtNtNtCs9VvCb0vlg4r_18infraware_terminal5utils4ansi5testss_14test_underline
FNDA:1,_RNvNtNtNtCs9VvCb0vlg4r_18infraware_terminal5utils4ansi5testss_16test_color_codes
FNDA:1,_RNvNtNtNtCs9VvCb0vlg4r_18infraware_terminal5utils4ansi5testss_16test_color_debug
FNDA:1,_RNvNtNtNtCs9VvCb0vlg4r_18infraware_terminal5utils4ansi5testss_18test_display_trait
FNDA:1,_RNvNtNtNtCs9VvCb0vlg4r_18infraware_terminal5utils4ansi5testss_19test_color_equality
FNDA:1,_RNvNtNtNtCs9VvCb0vlg4r_18infraware_terminal5utils4ansi5testss_21test_strip_ansi_codes
FNDA:1,_RNvNtNtNtCs9VvCb0vlg4r_18infraware_terminal5utils4ansi5testss_23test_bright_color_codes
FNDA:1,_RNvNtNtNtCs9VvCb0vlg4r_18infraware_terminal5utils4ansi5testss_24test_colorize_all_colors
FNDA:1,_RNvNtNtNtCs9VvCb0vlg4r_18infraware_terminal5utils4ansi5testss_26test_strip_ansi_plain_text
FNDA:1,_RNvNtNtNtCs9VvCb0vlg4r_18infraware_terminal5utils4ansi5testss_27test_colorize_bright_colors
FNDA:1,_RNvNtNtNtCs9VvCb0vlg4r_18infraware_terminal5utils4ansi5testss_28test_strip_ansi_empty_string
FNDA:1,_RNvNtNtNtCs9VvCb0vlg4r_18infraware_terminal5utils4ansi5testss_30test_strip_ansi_multiple_codes
FNDA:1,_RNvNtNtNtCs9VvCb0vlg4r_18infraware_terminal5utils4ansi5testss_8test_dim
FNDA:1,_RNvNtNtNtCs9VvCb0vlg4r_18infraware_terminal5utils4ansi5testss_9test_bold
FNDA:1,_RNCNvNtNtCs9VvCb0vlg4r_18infraware_terminal5utils4ansi16strip_ansi_codes0B7_
FNDA:1,_RNCNvNtNtCsdeW3LDTW70x_18infraware_terminal5utils4ansi16strip_ansi_codes0B7_
FNDA:110,_RNvMNtNtCsdeW3LDTW70x_18infraware_terminal5utils4ansiNtB2_9AnsiColor4code
FNDA:45,_RNvMNtNtCsdeW3LDTW70x_18infraware_terminal5utils4ansiNtB2_9AnsiColor8colorize
FNDA:1,_RNvMs0_NtNtCsdeW3LDTW70x_18infraware_terminal5utils4ansiNtB5_9AnsiStyle3dim
FNDA:2,_RNvMs0_NtNtCsdeW3LDTW70x_18infraware_terminal5utils4ansiNtB5_9AnsiStyle4bold
FNDA:1,_RNvMs0_NtNtCsdeW3LDTW70x_18infraware_terminal5utils4ansiNtB5_9AnsiStyle6italic
FNDA:1,_RNvMs0_NtNtCsdeW3LDTW70x_18infraware_terminal5utils4ansiNtB5_9AnsiStyle9underline
FNDA:4,_RNvNtNtCsdeW3LDTW70x_18infraware_terminal5utils4ansi16strip_ansi_codes
FNDA:3,_RNvXs_NtNtCsdeW3LDTW70x_18infraware_terminal5utils4ansiNtB4_9AnsiColorNtNtCs5GmCzIpY9Qj_4core3fmt7Display3fmt
FNDA:1,_RNvNtNtNtCsdeW3LDTW70x_18infraware_terminal5utils4ansi5testss_11test_italic
FNDA:1,_RNvNtNtNtCsdeW3LDTW70x_18infraware_terminal5utils4ansi5testss_13test_colorize
FNDA:1,_RNvNtNtNtCsdeW3LDTW70x_18infraware_terminal5utils4ansi5testss_14test_underline
FNDA:1,_RNvNtNtNtCsdeW3LDTW70x_18infraware_terminal5utils4ansi5testss_16test_color_codes
FNDA:1,_RNvNtNtNtCsdeW3LDTW70x_18infraware_terminal5utils4ansi5testss_16test_color_debug
FNDA:1,_RNvNtNtNtCsdeW3LDTW70x_18infraware_terminal5utils4ansi5testss_18test_display_trait
FNDA:1,_RNvNtNtNtCsdeW3LDTW70x_18infraware_terminal5utils4ansi5testss_19test_color_equality
FNDA:1,_RNvNtNtNtCsdeW3LDTW70x_18infraware_terminal5utils4ansi5testss_21test_strip_ansi_codes
FNDA:1,_RNvNtNtNtCsdeW3LDTW70x_18infraware_terminal5utils4ansi5testss_23test_bright_color_codes
FNDA:1,_RNvNtNtNtCsdeW3LDTW70x_18infraware_terminal5utils4ansi5testss_24test_colorize_all_colors
FNDA:1,_RNvNtNtNtCsdeW3LDTW70x_18infraware_terminal5utils4ansi5testss_26test_strip_ansi_plain_text
FNDA:1,_RNvNtNtNtCsdeW3LDTW70x_18infraware_terminal5utils4ansi5testss_27test_colorize_bright_colors
FNDA:1,_RNvNtNtNtCsdeW3LDTW70x_18infraware_terminal5utils4ansi5testss_28test_strip_ansi_empty_string
FNDA:1,_RNvNtNtNtCsdeW3LDTW70x_18infraware_terminal5utils4ansi5testss_30test_strip_ansi_multiple_codes
FNDA:1,_RNvNtNtNtCsdeW3LDTW70x_18infraware_terminal5utils4ansi5testss_8test_dim
FNDA:1,_RNvNtNtNtCsdeW3LDTW70x_18infraware_terminal5utils4ansi5testss_9test_bold
FNF:25
FNH:25
DA:30,236
DA:31,236
DA:32,4
DA:33,32
DA:34,14
DA:35,17
DA:36,11
DA:37,8
DA:38,10
DA:39,4
DA:40,6
DA:41,4
DA:42,4
DA:43,4
DA:44,4
DA:45,4
DA:46,6
DA:47,4
DA:48,100
DA:50,236
DA:53,98
DA:54,98
DA:55,98
DA:59,6
DA:60,6
DA:61,6
DA:81,4
DA:82,4
DA:83,4
DA:86,2
DA:87,2
DA:88,2
DA:91,2
DA:92,2
DA:93,2
DA:96,2
DA:97,2
DA:98,2
DA:108,8
DA:109,8
DA:110,8
DA:111,8
DA:112,8
DA:119,2
DA:120,2
DA:121,2
DA:122,2
DA:123,2
DA:124,2
DA:127,2
DA:128,2
DA:129,2
DA:130,2
DA:131,2
DA:132,2
DA:135,2
DA:136,2
DA:137,2
DA:138,2
DA:139,2
DA:143,2
DA:144,2
DA:145,2
DA:146,2
DA:147,2
DA:148,2
DA:149,2
DA:150,2
DA:151,2
DA:152,2
DA:153,2
DA:156,2
DA:157,2
DA:158,2
DA:159,2
DA:160,2
DA:161,2
DA:162,2
DA:163,2
DA:164,2
DA:165,2
DA:168,2
DA:169,2
DA:170,2
DA:171,2
DA:172,2
DA:173,2
DA:174,2
DA:175,2
DA:176,2
DA:177,2
DA:180,18
DA:181,16
DA:182,16
DA:183,16
DA:185,2
DA:188,2
DA:189,2
DA:190,2
DA:191,2
DA:192,2
DA:193,2
DA:194,2
DA:195,2
DA:196,2
DA:197,2
DA:200,18
DA:201,16
DA:202,16
DA:203,16
DA:205,2
DA:208,2
DA:209,2
DA:210,2
DA:211,2
DA:212,2
DA:215,2
DA:216,2
DA:217,2
DA:218,2
DA:219,2
DA:220,2
DA:223,2
DA:224,2
DA:225,2
DA:226,2
DA:227,2
DA:228,2
DA:231,2
DA:232,2
DA:233,2
DA:234,2
DA:235,2
DA:236,2
DA:239,2
DA:240,2
DA:241,2
DA:242,2
DA:243,2
DA:244,2
DA:246,2
DA:247,2
DA:248,2
DA:251,2
DA:252,2
DA:253,2
DA:256,2
DA:257,2
DA:258,2
DA:261,2
DA:262,2
DA:263,2
DA:264,2
DA:267,2
DA:268,2
DA:269,2
DA:270,2
BRF:0
BRH:0
LF:158
LH:158
end_of_record
SF:/home/crist/infraware-terminal/terminal-app/src/utils/errors.rs
FN:74,_RINvMNtNtCskvicDDTzzc8_18infraware_terminal5utils6errorsNtB3_10InfraError11llm_requestpEB7_
FN:84,_RINvMNtNtCskvicDDTzzc8_18infraware_terminal5utils6errorsNtB3_10InfraError11terminal_uipEB7_
FN:89,_RINvMNtNtCskvicDDTzzc8_18infraware_terminal5utils6errorsNtB3_10InfraError15package_installpEB7_
FN:64,_RINvMNtNtCskvicDDTzzc8_18infraware_terminal5utils6errorsNtB3_10InfraError17command_executionpEB7_
FN:69,_RINvMNtNtCskvicDDTzzc8_18infraware_terminal5utils6errorsNtB3_10InfraError17command_not_foundpEB7_
FN:79,_RINvMNtNtCskvicDDTzzc8_18infraware_terminal5utils6errorsNtB3_10InfraError5parsepEB7_
FN:94,_RINvMNtNtCskvicDDTzzc8_18infraware_terminal5utils6errorsNtB3_10InfraError6configpEB7_
FN:99,_RINvMNtNtCskvicDDTzzc8_18infraware_terminal5utils6errorsNtB3_10InfraError7genericpEB7_
FN:104,_RNvMNtNtCskvicDDTzzc8_18infraware_terminal5utils6errorsNtB2_10InfraError20is_command_not_found
FN:109,_RNvMNtNtCskvicDDTzzc8_18infraware_terminal5utils6errorsNtB2_10InfraError7message
FN:222,_RNvNtNtNtCs9VvCb0vlg4r_18infraware_terminal5utils6errors5testss_16test_error_debug
FN:146,_RNvNtNtNtCs9VvCb0vlg4r_18infraware_terminal5utils6errors5testss_16test_parse_error
FN:167,_RNvNtNtNtCs9VvCb0vlg4r_18infraware_terminal5utils6errors5testss_17test_config_error
FN:126,_RNvNtNtNtCs9VvCb0vlg4r_18infraware_terminal5utils6errors5testss_18test_error_display
FN:132,_RNvNtNtNtCs9VvCb0vlg4r_18infraware_terminal5utils6errors5testss_18test_from_io_error
FN:173,_RNvNtNtNtCs9VvCb0vlg4r_18infraware_terminal5utils6errors5testss_18test_generic_error
FN:194,_RNvNtNtNtCs9VvCb0vlg4r_18infraware_terminal5utils6errors5testss_19test_message_method
FN:119,_RNvNtNtNtCs9VvCb0vlg4r_18infraware_terminal5utils6errors5testss_22test_command_not_found
FN:202,_RNvNtNtNtCs9VvCb0vlg4r_18infraware_terminal5utils6errors5testss_22test_from_anyhow_error
FN:139,_RNvNtNtNtCs9VvCb0vlg4r_18infraware_terminal5utils6errors5testss_22test_llm_request_error
FN:152,_RNvNtNtNtCs9VvCb0vlg4r_18infraware_terminal5utils6errors5testss_22test_terminal_ui_error
FN:179,_RNvNtNtNtCs9VvCb0vlg4r_18infraware_terminal5utils6errors5testss_23test_no_package_manager
FN:158,_RNvNtNtNtCs9VvCb0vlg4r_18infraware_terminal5utils6errors5testss_26test_package_install_error
FN:209,_RNvNtNtNtCs9VvCb0vlg4r_18infraware_terminal5utils6errors5testss_27test_all_error_constructors
FN:188,_RNvNtNtNtCs9VvCb0vlg4r_18infraware_terminal5utils6errors5testss_34test_is_command_not_found_negative
FN:74,_RINvMNtNtCs9VvCb0vlg4r_18infraware_terminal5utils6errorsNtB3_10InfraError11llm_requestReEB7_
FN:84,_RINvMNtNtCs9VvCb0vlg4r_18infraware_terminal5utils6errorsNtB3_10InfraError11terminal_uiReEB7_
FN:89,_RINvMNtNtCs9VvCb0vlg4r_18infraware_terminal5utils6errorsNtB3_10InfraError15package_installReEB7_
FN:64,_RINvMNtNtCs9VvCb0vlg4r_18infraware_terminal5utils6errorsNtB3_10InfraError17command_executionReEB7_
FN:69,_RINvMNtNtCs9VvCb0vlg4r_18infraware_terminal5utils6errorsNtB3_10InfraError17command_not_foundReEB7_
FN:79,_RINvMNtNtCs9VvCb0vlg4r_18infraware_terminal5utils6errorsNtB3_10InfraError5parseReEB7_
FN:94,_RINvMNtNtCs9VvCb0vlg4r_18infraware_terminal5utils6errorsNtB3_10InfraError6configReEB7_
FN:99,_RINvMNtNtCs9VvCb0vlg4r_18infraware_terminal5utils6errorsNtB3_10InfraError7genericReEB7_
FN:104,_RNvMNtNtCs9VvCb0vlg4r_18infraware_terminal5utils6errorsNtB2_10InfraError20is_command_not_found
FN:109,_RNvMNtNtCs9VvCb0vlg4r_18infraware_terminal5utils6errorsNtB2_10InfraError7message
FN:104,_RNvMNtNtCsdeW3LDTW70x_18infraware_terminal5utils6errorsNtB2_10InfraError20is_command_not_found
FN:109,_RNvMNtNtCsdeW3LDTW70x_18infraware_terminal5utils6errorsNtB2_10InfraError7message
FN:222,_RNvNtNtNtCsdeW3LDTW70x_18infraware_terminal5utils6errors5testss_16test_error_debug
FN:146,_RNvNtNtNtCsdeW3LDTW70x_18infraware_terminal5utils6errors5testss_16test_parse_error
FN:167,_RNvNtNtNtCsdeW3LDTW70x_18infraware_terminal5utils6errors5testss_17test_config_error
FN:126,_RNvNtNtNtCsdeW3LDTW70x_18infraware_terminal5utils6errors5testss_18test_error_display
FN:132,_RNvNtNtNtCsdeW3LDTW70x_18infraware_terminal5utils6errors5testss_18test_from_io_error
FN:173,_RNvNtNtNtCsdeW3LDTW70x_18infraware_terminal5utils6errors5testss_18test_generic_error
FN:194,_RNvNtNtNtCsdeW3LDTW70x_18infraware_terminal5utils6errors5testss_19test_message_method
FN:119,_RNvNtNtNtCsdeW3LDTW70x_18infraware_terminal5utils6errors5testss_22test_command_not_found
FN:202,_RNvNtNtNtCsdeW3LDTW70x_18infraware_terminal5utils6errors5testss_22test_from_anyhow_error
FN:139,_RNvNtNtNtCsdeW3LDTW70x_18infraware_terminal5utils6errors5testss_22test_llm_request_error
FN:152,_RNvNtNtNtCsdeW3LDTW70x_18infraware_terminal5utils6errors5testss_22test_terminal_ui_error
FN:179,_RNvNtNtNtCsdeW3LDTW70x_18infraware_terminal5utils6errors5testss_23test_no_package_manager
FN:158,_RNvNtNtNtCsdeW3LDTW70x_18infraware_terminal5utils6errors5testss_26test_package_install_error
FN:209,_RNvNtNtNtCsdeW3LDTW70x_18infraware_terminal5utils6errors5testss_27test_all_error_constructors
FN:188,_RNvNtNtNtCsdeW3LDTW70x_18infraware_terminal5utils6errors5testss_34test_is_command_not_found_negative
FN:74,_RINvMNtNtCsdeW3LDTW70x_18infraware_terminal5utils6errorsNtB3_10InfraError11llm_requestReEB7_
FN:84,_RINvMNtNtCsdeW3LDTW70x_18infraware_terminal5utils6errorsNtB3_10InfraError11terminal_uiReEB7_
FN:89,_RINvMNtNtCsdeW3LDTW70x_18infraware_terminal5utils6errorsNtB3_10InfraError15package_installReEB7_
FN:64,_RINvMNtNtCsdeW3LDTW70x_18infraware_terminal5utils6errorsNtB3_10InfraError17command_executionReEB7_
FN:69,_RINvMNtNtCsdeW3LDTW70x_18infraware_terminal5utils6errorsNtB3_10InfraError17command_not_foundReEB7_
FN:79,_RINvMNtNtCsdeW3LDTW70x_18infraware_terminal5utils6errorsNtB3_10InfraError5parseReEB7_
FN:94,_RINvMNtNtCsdeW3LDTW70x_18infraware_terminal5utils6errorsNtB3_10InfraError6configReEB7_
FN:99,_RINvMNtNtCsdeW3LDTW70x_18infraware_terminal5utils6errorsNtB3_10InfraError7genericReEB7_
FNDA:0,_RINvMNtNtCskvicDDTzzc8_18infraware_terminal5utils6errorsNtB3_10InfraError11llm_requestpEB7_
FNDA:0,_RINvMNtNtCskvicDDTzzc8_18infraware_terminal5utils6errorsNtB3_10InfraError11terminal_uipEB7_
FNDA:0,_RINvMNtNtCskvicDDTzzc8_18infraware_terminal5utils6errorsNtB3_10InfraError15package_installpEB7_
FNDA:0,_RINvMNtNtCskvicDDTzzc8_18infraware_terminal5utils6errorsNtB3_10InfraError17command_executionpEB7_
FNDA:0,_RINvMNtNtCskvicDDTzzc8_18infraware_terminal5utils6errorsNtB3_10InfraError17command_not_foundpEB7_
FNDA:0,_RINvMNtNtCskvicDDTzzc8_18infraware_terminal5utils6errorsNtB3_10InfraError5parsepEB7_
FNDA:0,_RINvMNtNtCskvicDDTzzc8_18infraware_terminal5utils6errorsNtB3_10InfraError6configpEB7_
FNDA:0,_RINvMNtNtCskvicDDTzzc8_18infraware_terminal5utils6errorsNtB3_10InfraError7genericpEB7_
FNDA:0,_RNvMNtNtCskvicDDTzzc8_18infraware_terminal5utils6errorsNtB2_10InfraError20is_command_not_found
FNDA:0,_RNvMNtNtCskvicDDTzzc8_18infraware_terminal5utils6errorsNtB2_10InfraError7message
FNDA:1,_RNvNtNtNtCs9VvCb0vlg4r_18infraware_terminal5utils6errors5testss_16test_error_debug
FNDA:1,_RNvNtNtNtCs9VvCb0vlg4r_18infraware_terminal5utils6errors5testss_16test_parse_error
FNDA:1,_RNvNtNtNtCs9VvCb0vlg4r_18infraware_terminal5utils6errors5testss_17test_config_error
FNDA:1,_RNvNtNtNtCs9VvCb0vlg4r_18infraware_terminal5utils6errors5testss_18test_error_display
FNDA:1,_RNvNtNtNtCs9VvCb0vlg4r_18infraware_terminal5utils6errors5testss_18test_from_io_error
FNDA:1,_RNvNtNtNtCs9VvCb0vlg4r_18infraware_terminal5utils6errors5testss_18test_generic_error
FNDA:1,_RNvNtNtNtCs9VvCb0vlg4r_18infraware_terminal5utils6errors5testss_19test_message_method
FNDA:1,_RNvNtNtNtCs9VvCb0vlg4r_18infraware_terminal5utils6errors5testss_22test_command_not_found
FNDA:1,_RNvNtNtNtCs9VvCb0vlg4r_18infraware_terminal5utils6errors5testss_22test_from_anyhow_error
FNDA:1,_RNvNtNtNtCs9VvCb0vlg4r_18infraware_terminal5utils6errors5testss_22test_llm_request_error
FNDA:1,_RNvNtNtNtCs9VvCb0vlg4r_18infraware_terminal5utils6errors5testss_22test_terminal_ui_error
FNDA:1,_RNvNtNtNtCs9VvCb0vlg4r_18infraware_terminal5utils6errors5testss_23test_no_package_manager
FNDA:1,_RNvNtNtNtCs9VvCb0vlg4r_18infraware_terminal5utils6errors5testss_26test_package_install_error
FNDA:1,_RNvNtNtNtCs9VvCb0vlg4r_18infraware_terminal5utils6errors5testss_27test_all_error_constructors
FNDA:1,_RNvNtNtNtCs9VvCb0vlg4r_18infraware_terminal5utils6errors5testss_34test_is_command_not_found_negative
FNDA:2,_RINvMNtNtCs9VvCb0vlg4r_18infraware_terminal5utils6errorsNtB3_10InfraError11llm_requestReEB7_
FNDA:2,_RINvMNtNtCs9VvCb0vlg4r_18infraware_terminal5utils6errorsNtB3_10InfraError11terminal_uiReEB7_
FNDA:2,_RINvMNtNtCs9VvCb0vlg4r_18infraware_terminal5utils6errorsNtB3_10InfraError15package_installReEB7_
FNDA:3,_RINvMNtNtCs9VvCb0vlg4r_18infraware_terminal5utils6errorsNtB3_10InfraError17command_executionReEB7_
FNDA:2,_RINvMNtNtCs9VvCb0vlg4r_18infraware_terminal5utils6errorsNtB3_10InfraError17command_not_foundReEB7_
FNDA:2,_RINvMNtNtCs9VvCb0vlg4r_18infraware_terminal5utils6errorsNtB3_10InfraError5parseReEB7_
FNDA:2,_RINvMNtNtCs9VvCb0vlg4r_18infraware_terminal5utils6errorsNtB3_10InfraError6configReEB7_
FNDA:2,_RINvMNtNtCs9VvCb0vlg4r_18infraware_terminal5utils6errorsNtB3_10InfraError7genericReEB7_
FNDA:2,_RNvMNtNtCs9VvCb0vlg4r_18infraware_terminal5utils6errorsNtB2_10InfraError20is_command_not_found
FNDA:3,_RNvMNtNtCs9VvCb0vlg4r_18infraware_terminal5utils6errorsNtB2_10InfraError7message
FNDA:2,_RNvMNtNtCsdeW3LDTW70x_18infraware_terminal5utils6errorsNtB2_10InfraError20is_command_not_found
FNDA:3,_RNvMNtNtCsdeW3LDTW70x_18infraware_terminal5utils6errorsNtB2_10InfraError7message
FNDA:1,_RNvNtNtNtCsdeW3LDTW70x_18infraware_terminal5utils6errors5testss_16test_error_debug
FNDA:1,_RNvNtNtNtCsdeW3LDTW70x_18infraware_terminal5utils6errors5testss_16test_parse_error
FNDA:1,_RNvNtNtNtCsdeW3LDTW70x_18infraware_terminal5utils6errors5testss_17test_config_error
FNDA:1,_RNvNtNtNtCsdeW3LDTW70x_18infraware_terminal5utils6errors5testss_18test_error_display
FNDA:1,_RNvNtNtNtCsdeW3LDTW70x_18infraware_terminal5utils6errors5testss_18test_from_io_error
FNDA:1,_RNvNtNtNtCsdeW3LDTW70x_18infraware_terminal5utils6errors5testss_18test_generic_error
FNDA:1,_RNvNtNtNtCsdeW3LDTW70x_18infraware_terminal5utils6errors5testss_19test_message_method
FNDA:1,_RNvNtNtNtCsdeW3LDTW70x_18infraware_terminal5utils6errors5testss_22test_command_not_found
FNDA:1,_RNvNtNtNtCsdeW3LDTW70x_18infraware_terminal5utils6errors5testss_22test_from_anyhow_error
FNDA:1,_RNvNtNtNtCsdeW3LDTW70x_18infraware_terminal5utils6errors5testss_22test_llm_request_error
FNDA:1,_RNvNtNtNtCsdeW3LDTW70x_18infraware_terminal5utils6errors5testss_22test_terminal_ui_error
FNDA:1,_RNvNtNtNtCsdeW3LDTW70x_18infraware_terminal5utils6errors5testss_23test_no_package_manager
FNDA:1,_RNvNtNtNtCsdeW3LDTW70x_18infraware_terminal5utils6errors5testss_26test_package_install_error
FNDA:1,_RNvNtNtNtCsdeW3LDTW70x_18infraware_terminal5utils6errors5testss_27test_all_error_constructors
FNDA:1,_RNvNtNtNtCsdeW3LDTW70x_18infraware_terminal5utils6errors5testss_34test_is_command_not_found_negative
FNDA:2,_RINvMNtNtCsdeW3LDTW70x_18infraware_terminal5utils6errorsNtB3_10InfraError11llm_requestReEB7_
FNDA:2,_RINvMNtNtCsdeW3LDTW70x_18infraware_terminal5utils6errorsNtB3_10InfraError11terminal_uiReEB7_
FNDA:2,_RINvMNtNtCsdeW3LDTW70x_18infraware_terminal5utils6errorsNtB3_10InfraError15package_installReEB7_
FNDA:3,_RINvMNtNtCsdeW3LDTW70x_18infraware_terminal5utils6errorsNtB3_10InfraError17command_executionReEB7_
FNDA:2,_RINvMNtNtCsdeW3LDTW70x_18infraware_terminal5utils6errorsNtB3_10InfraError17command_not_foundReEB7_
FNDA:2,_RINvMNtNtCsdeW3LDTW70x_18infraware_terminal5utils6errorsNtB3_10InfraError5parseReEB7_
FNDA:2,_RINvMNtNtCsdeW3LDTW70x_18infraware_terminal5utils6errorsNtB3_10InfraError6configReEB7_
FNDA:2,_RINvMNtNtCsdeW3LDTW70x_18infraware_terminal5utils6errorsNtB3_10InfraError7genericReEB7_
FNF:25
FNH:25
DA:64,6
DA:65,6
DA:66,6
DA:69,4
DA:70,4
DA:71,4
DA:74,4
DA:75,4
DA:76,4
DA:79,4
DA:80,4
DA:81,4
DA:84,4
DA:85,4
DA:86,4
DA:89,4
DA:90,4
DA:91,4
DA:94,4
DA:95,4
DA:96,4
DA:99,4
DA:100,4
DA:101,4
DA:104,4
DA:105,4
DA:106,4
DA:109,6
DA:110,6
DA:111,6
DA:119,2
DA:120,2
DA:121,2
DA:122,2
DA:123,2
DA:126,2
DA:127,2
DA:128,2
DA:129,2
DA:132,2
DA:133,2
DA:134,2
DA:135,2
DA:136,2
DA:139,2
DA:140,2
DA:141,2
DA:142,2
DA:143,2
DA:146,2
DA:147,2
DA:148,2
DA:149,2
DA:152,2
DA:153,2
DA:154,2
DA:155,2
DA:158,2
DA:159,2
DA:160,2
DA:161,2
DA:164,2
DA:167,2
DA:168,2
DA:169,2
DA:170,2
DA:173,2
DA:174,2
DA:175,2
DA:176,2
DA:179,2
DA:180,2
DA:181,2
DA:182,2
DA:185,2
DA:188,2
DA:189,2
DA:190,2
DA:191,2
DA:194,2
DA:195,2
DA:196,2
DA:197,2
DA:198,2
DA:199,2
DA:202,2
DA:203,2
DA:204,2
DA:205,2
DA:206,2
DA:209,2
DA:211,2
DA:212,2
DA:213,2
DA:214,2
DA:215,2
DA:216,2
DA:217,2
DA:218,2
DA:219,2
DA:222,2
DA:223,2
DA:224,2
DA:225,2
DA:226,2
BRF:0
BRH:0
LF:105
LH:105
end_of_record
SF:/home/crist/infraware-terminal/terminal-app/src/utils/message.rs
FN:57,_RINvMNtNtCskvicDDTzzc8_18infraware_terminal5utils7messageNtB3_16MessageFormatter6formatpEB7_
FN:27,_RINvMNtNtCskvicDDTzzc8_18infraware_terminal5utils7messageNtB3_16MessageFormatter7warningpEB7_
FN:47,_RINvMNtNtCskvicDDTzzc8_18infraware_terminal5utils7messageNtB3_16MessageFormatter8questionpEB7_
FN:74,_RNvMNtNtCskvicDDTzzc8_18infraware_terminal5utils7messageNtB2_16MessageFormatter14command_failed
FN:84,_RNvMNtNtCskvicDDTzzc8_18infraware_terminal5utils7messageNtB2_16MessageFormatter18install_suggestion
FN:52,_RINvMNtNtCskvicDDTzzc8_18infraware_terminal5utils7messageNtB3_16MessageFormatter10suggestionReEB7_
FN:98,_RINvMNtNtCskvicDDTzzc8_18infraware_terminal5utils7messageNtB3_16MessageFormatter11banner_hintReEB7_
FN:93,_RINvMNtNtCskvicDDTzzc8_18infraware_terminal5utils7messageNtB3_16MessageFormatter11banner_lineReEB7_
FN:103,_RINvMNtNtCskvicDDTzzc8_18infraware_terminal5utils7messageNtB3_16MessageFormatter12stderr_errorReEB7_
FN:79,_RINvMNtNtCskvicDDTzzc8_18infraware_terminal5utils7messageNtB3_16MessageFormatter15execution_errorNtNtCscmSb185pVu_5alloc6string6StringEB7_
FN:69,_RINvMNtNtCskvicDDTzzc8_18infraware_terminal5utils7messageNtB3_16MessageFormatter17command_not_foundReEB7_
FN:37,_RINvMNtNtCskvicDDTzzc8_18infraware_terminal5utils7messageNtB3_16MessageFormatter4infoReEB7_
FN:22,_RINvMNtNtCskvicDDTzzc8_18infraware_terminal5utils7messageNtB3_16MessageFormatter5errorNtNtCscmSb185pVu_5alloc6string6StringEB7_
FN:22,_RINvMNtNtCskvicDDTzzc8_18infraware_terminal5utils7messageNtB3_16MessageFormatter5errorRNtNtCscmSb185pVu_5alloc6string6StringEB7_
FN:42,_RINvMNtNtCskvicDDTzzc8_18infraware_terminal5utils7messageNtB3_16MessageFormatter7commandRNtNtCscmSb185pVu_5alloc6string6StringEB7_
FN:32,_RINvMNtNtCskvicDDTzzc8_18infraware_terminal5utils7messageNtB3_16MessageFormatter7successReEB7_
FN:74,_RNvMNtNtCs9VvCb0vlg4r_18infraware_terminal5utils7messageNtB2_16MessageFormatter14command_failed
FN:84,_RNvMNtNtCs9VvCb0vlg4r_18infraware_terminal5utils7messageNtB2_16MessageFormatter18install_suggestion
FN:209,_RNvNtNtNtCs9VvCb0vlg4r_18infraware_terminal5utils7message5testss_16test_banner_hint
FN:203,_RNvNtNtNtCs9VvCb0vlg4r_18infraware_terminal5utils7message5testss_16test_banner_line
FN:148,_RNvNtNtNtCs9VvCb0vlg4r_18infraware_terminal5utils7message5testss_17test_info_message
FN:215,_RNvNtNtNtCs9VvCb0vlg4r_18infraware_terminal5utils7message5testss_17test_stderr_error
FN:113,_RNvNtNtNtCs9VvCb0vlg4r_18infraware_terminal5utils7message5testss_18test_error_message
FN:176,_RNvNtNtNtCs9VvCb0vlg4r_18infraware_terminal5utils7message5testss_19test_command_failed
FN:155,_RNvNtNtNtCs9VvCb0vlg4r_18infraware_terminal5utils7message5testss_20test_command_message
FN:183,_RNvNtNtNtCs9VvCb0vlg4r_18infraware_terminal5utils7message5testss_20test_execution_error
FN:120,_RNvNtNtNtCs9VvCb0vlg4r_18infraware_terminal5utils7message5testss_20test_success_message
FN:141,_RNvNtNtNtCs9VvCb0vlg4r_18infraware_terminal5utils7message5testss_20test_warning_message
FN:221,_RNvNtNtNtCs9VvCb0vlg4r_18infraware_terminal5utils7message5testss_21test_format_all_types
FN:162,_RNvNtNtNtCs9VvCb0vlg4r_18infraware_terminal5utils7message5testss_21test_question_message
FN:127,_RNvNtNtNtCs9VvCb0vlg4r_18infraware_terminal5utils7message5testss_22test_command_not_found
FN:239,_RNvNtNtNtCs9VvCb0vlg4r_18infraware_terminal5utils7message5testss_23test_message_type_debug
FN:169,_RNvNtNtNtCs9VvCb0vlg4r_18infraware_terminal5utils7message5testss_23test_suggestion_message
FN:134,_RNvNtNtNtCs9VvCb0vlg4r_18infraware_terminal5utils7message5testss_24test_message_type_format
FN:245,_RNvNtNtNtCs9VvCb0vlg4r_18infraware_terminal5utils7message5testss_29test_as_ref_str_compatibility
FN:190,_RNvNtNtNtCs9VvCb0vlg4r_18infraware_terminal5utils7message5testss_33test_install_suggestion_available
FN:196,_RNvNtNtNtCs9VvCb0vlg4r_18infraware_terminal5utils7message5testss_35test_install_suggestion_unavailable
FN:52,_RINvMNtNtCs9VvCb0vlg4r_18infraware_terminal5utils7messageNtB3_16MessageFormatter10suggestionReEB7_
FN:98,_RINvMNtNtCs9VvCb0vlg4r_18infraware_terminal5utils7messageNtB3_16MessageFormatter11banner_hintReEB7_
FN:93,_RINvMNtNtCs9VvCb0vlg4r_18infraware_terminal5utils7messageNtB3_16MessageFormatter11banner_lineReEB7_
FN:103,_RINvMNtNtCs9VvCb0vlg4r_18infraware_terminal5utils7messageNtB3_16MessageFormatter12stderr_errorReEB7_
FN:79,_RINvMNtNtCs9VvCb0vlg4r_18infraware_terminal5utils7messageNtB3_16MessageFormatter15execution_errorNtNtCscmSb185pVu_5alloc6string6StringEB7_
FN:79,_RINvMNtNtCs9VvCb0vlg4r_18infraware_terminal5utils7messageNtB3_16MessageFormatter15execution_errorReEB7_
FN:69,_RINvMNtNtCs9VvCb0vlg4r_18infraware_terminal5utils7messageNtB3_16MessageFormatter17command_not_foundReEB7_
FN:37,_RINvMNtNtCs9VvCb0vlg4r_18infraware_terminal5utils7messageNtB3_16MessageFormatter4infoReEB7_
FN:22,_RINvMNtNtCs9VvCb0vlg4r_18infraware_terminal5utils7messageNtB3_16MessageFormatter5errorNtNtCscmSb185pVu_5alloc6string6StringEB7_
FN:22,_RINvMNtNtCs9VvCb0vlg4r_18infraware_terminal5utils7messageNtB3_16MessageFormatter5errorReEB7_
FN:57,_RINvMNtNtCs9VvCb0vlg4r_18infraware_terminal5utils7messageNtB3_16MessageFormatter6formatReEB7_
FN:42,_RINvMNtNtCs9VvCb0vlg4r_18infraware_terminal5utils7messageNtB3_16MessageFormatter7commandReEB7_
FN:32,_RINvMNtNtCs9VvCb0vlg4r_18infraware_terminal5utils7messageNtB3_16MessageFormatter7successReEB7_
FN:27,_RINvMNtNtCs9VvCb0vlg4r_18infraware_terminal5utils7messageNtB3_16MessageFormatter7warningReEB7_
FN:47,_RINvMNtNtCs9VvCb0vlg4r_18infraware_terminal5utils7messageNtB3_16MessageFormatter8questionReEB7_
FN:52,_RINvMNtNtCsdeW3LDTW70x_18infraware_terminal5utils7messageNtB3_16MessageFormatter10suggestionReEB7_
FN:98,_RINvMNtNtCsdeW3LDTW70x_18infraware_terminal5utils7messageNtB3_16MessageFormatter11banner_hintReEB7_
FN:93,_RINvMNtNtCsdeW3LDTW70x_18infraware_terminal5utils7messageNtB3_16MessageFormatter11banner_lineReEB7_
FN:103,_RINvMNtNtCsdeW3LDTW70x_18infraware_terminal5utils7messageNtB3_16MessageFormatter12stderr_errorReEB7_
FN:79,_RINvMNtNtCsdeW3LDTW70x_18infraware_terminal5utils7messageNtB3_16MessageFormatter15execution_errorReEB7_
FN:69,_RINvMNtNtCsdeW3LDTW70x_18infraware_terminal5utils7messageNtB3_16MessageFormatter17command_not_foundReEB7_
FN:37,_RINvMNtNtCsdeW3LDTW70x_18infraware_terminal5utils7messageNtB3_16MessageFormatter4infoReEB7_
FN:22,_RINvMNtNtCsdeW3LDTW70x_18infraware_terminal5utils7messageNtB3_16MessageFormatter5errorNtNtCscmSb185pVu_5alloc6string6StringEB7_
FN:22,_RINvMNtNtCsdeW3LDTW70x_18infraware_terminal5utils7messageNtB3_16MessageFormatter5errorReEB7_
FN:57,_RINvMNtNtCsdeW3LDTW70x_18infraware_terminal5utils7messageNtB3_16MessageFormatter6formatReEB7_
FN:42,_RINvMNtNtCsdeW3LDTW70x_18infraware_terminal5utils7messageNtB3_16MessageFormatter7commandReEB7_
FN:32,_RINvMNtNtCsdeW3LDTW70x_18infraware_terminal5utils7messageNtB3_16MessageFormatter7successReEB7_
FN:27,_RINvMNtNtCsdeW3LDTW70x_18infraware_terminal5utils7messageNtB3_16MessageFormatter7warningReEB7_
FN:47,_RINvMNtNtCsdeW3LDTW70x_18infraware_terminal5utils7messageNtB3_16MessageFormatter8questionReEB7_
FN:74,_RNvMNtNtCsdeW3LDTW70x_18infraware_terminal5utils7messageNtB2_16MessageFormatter14command_failed
FN:84,_RNvMNtNtCsdeW3LDTW70x_18infraware_terminal5utils7messageNtB2_16MessageFormatter18install_suggestion
FN:209,_RNvNtNtNtCsdeW3LDTW70x_18infraware_terminal5utils7message5testss_16test_banner_hint
FN:203,_RNvNtNtNtCsdeW3LDTW70x_18infraware_terminal5utils7message5testss_16test_banner_line
FN:148,_RNvNtNtNtCsdeW3LDTW70x_18infraware_terminal5utils7message5testss_17test_info_message
FN:215,_RNvNtNtNtCsdeW3LDTW70x_18infraware_terminal5utils7message5testss_17test_stderr_error
FN:113,_RNvNtNtNtCsdeW3LDTW70x_18infraware_terminal5utils7message5testss_18test_error_message
FN:176,_RNvNtNtNtCsdeW3LDTW70x_18infraware_terminal5utils7message5testss_19test_command_failed
FN:155,_RNvNtNtNtCsdeW3LDTW70x_18infraware_terminal5utils7message5testss_20test_command_message
FN:183,_RNvNtNtNtCsdeW3LDTW70x_18infraware_terminal5utils7message5testss_20test_execution_error
FN:120,_RNvNtNtNtCsdeW3LDTW70x_18infraware_terminal5utils7message5testss_20test_success_message
FN:141,_RNvNtNtNtCsdeW3LDTW70x_18infraware_terminal5utils7message5testss_20test_warning_message
FN:221,_RNvNtNtNtCsdeW3LDTW70x_18infraware_terminal5utils7message5testss_21test_format_all_types
FN:162,_RNvNtNtNtCsdeW3LDTW70x_18infraware_terminal5utils7message5testss_21test_question_message
FN:127,_RNvNtNtNtCsdeW3LDTW70x_18infraware_terminal5utils7message5testss_22test_command_not_found
FN:239,_RNvNtNtNtCsdeW3LDTW70x_18infraware_terminal5utils7message5testss_23test_message_type_debug
FN:169,_RNvNtNtNtCsdeW3LDTW70x_18infraware_terminal5utils7message5testss_23test_suggestion_message
FN:134,_RNvNtNtNtCsdeW3LDTW70x_18infraware_terminal5utils7message5testss_24test_message_type_format
FN:245,_RNvNtNtNtCsdeW3LDTW70x_18infraware_terminal5utils7message5testss_29test_as_ref_str_compatibility
FN:190,_RNvNtNtNtCsdeW3LDTW70x_18infraware_terminal5utils7message5testss_33test_install_suggestion_available
FN:196,_RNvNtNtNtCsdeW3LDTW70x_18infraware_terminal5utils7message5testss_35test_install_suggestion_unavailable
FNDA:0,_RINvMNtNtCskvicDDTzzc8_18infraware_terminal5utils7messageNtB3_16MessageFormatter6formatpEB7_
FNDA:0,_RINvMNtNtCskvicDDTzzc8_18infraware_terminal5utils7messageNtB3_16MessageFormatter7warningpEB7_
FNDA:0,_RINvMNtNtCskvicDDTzzc8_18infraware_terminal5utils7messageNtB3_16MessageFormatter8questionpEB7_
FNDA:0,_RNvMNtNtCskvicDDTzzc8_18infraware_terminal5utils7messageNtB2_16MessageFormatter14command_failed
FNDA:0,_RNvMNtNtCskvicDDTzzc8_18infraware_terminal5utils7messageNtB2_16MessageFormatter18install_suggestion
FNDA:0,_RINvMNtNtCskvicDDTzzc8_18infraware_terminal5utils7messageNtB3_16MessageFormatter10suggestionReEB7_
FNDA:0,_RINvMNtNtCskvicDDTzzc8_18infraware_terminal5utils7messageNtB3_16MessageFormatter11banner_hintReEB7_
FNDA:0,_RINvMNtNtCskvicDDTzzc8_18infraware_terminal5utils7messageNtB3_16MessageFormatter11banner_lineReEB7_
FNDA:0,_RINvMNtNtCskvicDDTzzc8_18infraware_terminal5utils7messageNtB3_16MessageFormatter12stderr_errorReEB7_
FNDA:0,_RINvMNtNtCskvicDDTzzc8_18infraware_terminal5utils7messageNtB3_16MessageFormatter15execution_errorNtNtCscmSb185pVu_5alloc6string6StringEB7_
FNDA:0,_RINvMNtNtCskvicDDTzzc8_18infraware_terminal5utils7messageNtB3_16MessageFormatter17command_not_foundReEB7_
FNDA:0,_RINvMNtNtCskvicDDTzzc8_18infraware_terminal5utils7messageNtB3_16MessageFormatter4infoReEB7_
FNDA:0,_RINvMNtNtCskvicDDTzzc8_18infraware_terminal5utils7messageNtB3_16MessageFormatter5errorNtNtCscmSb185pVu_5alloc6string6StringEB7_
FNDA:0,_RINvMNtNtCskvicDDTzzc8_18infraware_terminal5utils7messageNtB3_16MessageFormatter5errorRNtNtCscmSb185pVu_5alloc6string6StringEB7_
FNDA:0,_RINvMNtNtCskvicDDTzzc8_18infraware_terminal5utils7messageNtB3_16MessageFormatter7commandRNtNtCscmSb185pVu_5alloc6string6StringEB7_
FNDA:0,_RINvMNtNtCskvicDDTzzc8_18infraware_terminal5utils7messageNtB3_16MessageFormatter7successReEB7_
FNDA:2,_RNvMNtNtCs9VvCb0vlg4r_18infraware_terminal5utils7messageNtB2_16MessageFormatter14command_failed
FNDA:3,_RNvMNtNtCs9VvCb0vlg4r_18infraware_terminal5utils7messageNtB2_16MessageFormatter18install_suggestion
FNDA:1,_RNvNtNtNtCs9VvCb0vlg4r_18infraware_terminal5utils7message5testss_16test_banner_hint
FNDA:1,_RNvNtNtNtCs9VvCb0vlg4r_18infraware_terminal5utils7message5testss_16test_banner_line
FNDA:1,_RNvNtNtNtCs9VvCb0vlg4r_18infraware_terminal5utils7message5testss_17test_info_message
FNDA:1,_RNvNtNtNtCs9VvCb0vlg4r_18infraware_terminal5utils7message5testss_17test_stderr_error
FNDA:1,_RNvNtNtNtCs9VvCb0vlg4r_18infraware_terminal5utils7message5testss_18test_error_message
FNDA:1,_RNvNtNtNtCs9VvCb0vlg4r_18infraware_terminal5utils7message5testss_19test_command_failed
FNDA:1,_RNvNtNtNtCs9VvCb0vlg4r_18infraware_terminal5utils7message5testss_20test_command_message
FNDA:1,_RNvNtNtNtCs9VvCb0vlg4r_18infraware_terminal5utils7message5testss_20test_execution_error
FNDA:1,_RNvNtNtNtCs9VvCb0vlg4r_18infraware_terminal5utils7message5testss_20test_success_message
FNDA:1,_RNvNtNtNtCs9VvCb0vlg4r_18infraware_terminal5utils7message5testss_20test_warning_message
FNDA:1,_RNvNtNtNtCs9VvCb0vlg4r_18infraware_terminal5utils7message5testss_21test_format_all_types
FNDA:1,_RNvNtNtNtCs9VvCb0vlg4r_18infraware_terminal5utils7message5testss_21test_question_message
FNDA:1,_RNvNtNtNtCs9VvCb0vlg4r_18infraware_terminal5utils7message5testss_22test_command_not_found
FNDA:1,_RNvNtNtNtCs9VvCb0vlg4r_18infraware_terminal5utils7message5testss_23test_message_type_debug
FNDA:1,_RNvNtNtNtCs9VvCb0vlg4r_18infraware_terminal5utils7message5testss_23test_suggestion_message
FNDA:1,_RNvNtNtNtCs9VvCb0vlg4r_18infraware_terminal5utils7message5testss_24test_message_type_format
FNDA:1,_RNvNtNtNtCs9VvCb0vlg4r_18infraware_terminal5utils7message5testss_29test_as_ref_str_compatibility
FNDA:1,_RNvNtNtNtCs9VvCb0vlg4r_18infraware_terminal5utils7message5testss_33test_install_suggestion_available
FNDA:1,_RNvNtNtNtCs9VvCb0vlg4r_18infraware_terminal5utils7message5testss_35test_install_suggestion_unavailable
FNDA:3,_RINvMNtNtCs9VvCb0vlg4r_18infraware_terminal5utils7messageNtB3_16MessageFormatter10suggestionReEB7_
FNDA:1,_RINvMNtNtCs9VvCb0vlg4r_18infraware_terminal5utils7messageNtB3_16MessageFormatter11banner_hintReEB7_
FNDA:1,_RINvMNtNtCs9VvCb0vlg4r_18infraware_terminal5utils7messageNtB3_16MessageFormatter11banner_lineReEB7_
FNDA:2,_RINvMNtNtCs9VvCb0vlg4r_18infraware_terminal5utils7messageNtB3_16MessageFormatter12stderr_errorReEB7_
FNDA:1,_RINvMNtNtCs9VvCb0vlg4r_18infraware_terminal5utils7messageNtB3_16MessageFormatter15execution_errorNtNtCscmSb185pVu_5alloc6string6StringEB7_
FNDA:1,_RINvMNtNtCs9VvCb0vlg4r_18infraware_terminal5utils7messageNtB3_16MessageFormatter15execution_errorReEB7_
FNDA:2,_RINvMNtNtCs9VvCb0vlg4r_18infraware_terminal5utils7messageNtB3_16MessageFormatter17command_not_foundReEB7_
FNDA:4,_RINvMNtNtCs9VvCb0vlg4r_18infraware_terminal5utils7messageNtB3_16MessageFormatter4infoReEB7_
FNDA:9,_RINvMNtNtCs9VvCb0vlg4r_18infraware_terminal5utils7messageNtB3_16MessageFormatter5errorNtNtCscmSb185pVu_5alloc6string6StringEB7_
FNDA:3,_RINvMNtNtCs9VvCb0vlg4r_18infraware_terminal5utils7messageNtB3_16MessageFormatter5errorReEB7_
FNDA:7,_RINvMNtNtCs9VvCb0vlg4r_18infraware_terminal5utils7messageNtB3_16MessageFormatter6formatReEB7_
FNDA:2,_RINvMNtNtCs9VvCb0vlg4r_18infraware_terminal5utils7messageNtB3_16MessageFormatter7commandReEB7_
FNDA:2,_RINvMNtNtCs9VvCb0vlg4r_18infraware_terminal5utils7messageNtB3_16MessageFormatter7successReEB7_
FNDA:4,_RINvMNtNtCs9VvCb0vlg4r_18infraware_terminal5utils7messageNtB3_16MessageFormatter7warningReEB7_
FNDA:2,_RINvMNtNtCs9VvCb0vlg4r_18infraware_terminal5utils7messageNtB3_16MessageFormatter8questionReEB7_
FNDA:2,_RINvMNtNtCsdeW3LDTW70x_18infraware_terminal5utils7messageNtB3_16MessageFormatter10suggestionReEB7_
FNDA:1,_RINvMNtNtCsdeW3LDTW70x_18infraware_terminal5utils7messageNtB3_16MessageFormatter11banner_hintReEB7_
FNDA:1,_RINvMNtNtCsdeW3LDTW70x_18infraware_terminal5utils7messageNtB3_16MessageFormatter11banner_lineReEB7_
FNDA:1,_RINvMNtNtCsdeW3LDTW70x_18infraware_terminal5utils7messageNtB3_16MessageFormatter12stderr_errorReEB7_
FNDA:1,_RINvMNtNtCsdeW3LDTW70x_18infraware_terminal5utils7messageNtB3_16MessageFormatter15execution_errorReEB7_
FNDA:1,_RINvMNtNtCsdeW3LDTW70x_18infraware_terminal5utils7messageNtB3_16MessageFormatter17command_not_foundReEB7_
FNDA:3,_RINvMNtNtCsdeW3LDTW70x_18infraware_terminal5utils7messageNtB3_16MessageFormatter4infoReEB7_
FNDA:4,_RINvMNtNtCsdeW3LDTW70x_18infraware_terminal5utils7messageNtB3_16MessageFormatter5errorNtNtCscmSb185pVu_5alloc6string6StringEB7_
FNDA:3,_RINvMNtNtCsdeW3LDTW70x_18infraware_terminal5utils7messageNtB3_16MessageFormatter5errorReEB7_
FNDA:7,_RINvMNtNtCsdeW3LDTW70x_18infraware_terminal5utils7messageNtB3_16MessageFormatter6formatReEB7_
FNDA:2,_RINvMNtNtCsdeW3LDTW70x_18infraware_terminal5utils7messageNtB3_16MessageFormatter7commandReEB7_
FNDA:2,_RINvMNtNtCsdeW3LDTW70x_18infraware_terminal5utils7messageNtB3_16MessageFormatter7successReEB7_
FNDA:4,_RINvMNtNtCsdeW3LDTW70x_18infraware_terminal5utils7messageNtB3_16MessageFormatter7warningReEB7_
FNDA:2,_RINvMNtNtCsdeW3LDTW70x_18infraware_terminal5utils7messageNtB3_16MessageFormatter8questionReEB7_
FNDA:1,_RNvMNtNtCsdeW3LDTW70x_18infraware_terminal5utils7messageNtB2_16MessageFormatter14command_failed
FNDA:2,_RNvMNtNtCsdeW3LDTW70x_18infraware_terminal5utils7messageNtB2_16MessageFormatter18install_suggestion
FNDA:1,_RNvNtNtNtCsdeW3LDTW70x_18infraware_terminal5utils7message5testss_16test_banner_hint
FNDA:1,_RNvNtNtNtCsdeW3LDTW70x_18infraware_terminal5utils7message5testss_16test_banner_line
FNDA:1,_RNvNtNtNtCsdeW3LDTW70x_18infraware_terminal5utils7message5testss_17test_info_message
FNDA:1,_RNvNtNtNtCsdeW3LDTW70x_18infraware_terminal5utils7message5testss_17test_stderr_error
FNDA:1,_RNvNtNtNtCsdeW3LDTW70x_18infraware_terminal5utils7message5testss_18test_error_message
FNDA:1,_RNvNtNtNtCsdeW3LDTW70x_18infraware_terminal5utils7message5testss_19test_command_failed
FNDA:1,_RNvNtNtNtCsdeW3LDTW70x_18infraware_terminal5utils7message5testss_20test_command_message
FNDA:1,_RNvNtNtNtCsdeW3LDTW70x_18infraware_terminal5utils7message5testss_20test_execution_error
FNDA:1,_RNvNtNtNtCsdeW3LDTW70x_18infraware_terminal5utils7message5testss_20test_success_message
FNDA:1,_RNvNtNtNtCsdeW3LDTW70x_18infraware_terminal5utils7message5testss_20test_warning_message
FNDA:1,_RNvNtNtNtCsdeW3LDTW70x_18infraware_terminal5utils7message5testss_21test_format_all_types
FNDA:1,_RNvNtNtNtCsdeW3LDTW70x_18infraware_terminal5utils7message5testss_21test_question_message
FNDA:1,_RNvNtNtNtCsdeW3LDTW70x_18infraware_terminal5utils7message5testss_22test_command_not_found
FNDA:1,_RNvNtNtNtCsdeW3LDTW70x_18infraware_terminal5utils7message5testss_23test_message_type_debug
FNDA:1,_RNvNtNtNtCsdeW3LDTW70x_18infraware_terminal5utils7message5testss_23test_suggestion_message
FNDA:1,_RNvNtNtNtCsdeW3LDTW70x_18infraware_terminal5utils7message5testss_24test_message_type_format
FNDA:1,_RNvNtNtNtCsdeW3LDTW70x_18infraware_terminal5utils7message5testss_29test_as_ref_str_compatibility
FNDA:1,_RNvNtNtNtCsdeW3LDTW70x_18infraware_terminal5utils7message5testss_33test_install_suggestion_available
FNDA:1,_RNvNtNtNtCsdeW3LDTW70x_18infraware_terminal5utils7message5testss_35test_install_suggestion_unavailable
FNF:34
FNH:34
DA:22,19
DA:23,19
DA:24,19
DA:27,8
DA:28,8
DA:29,8
DA:32,4
DA:33,4
DA:34,4
DA:37,7
DA:38,7
DA:39,7
DA:42,4
DA:43,4
DA:44,4
DA:47,4
DA:48,4
DA:49,4
DA:52,5
DA:53,5
DA:54,5
DA:57,14
DA:58,14
DA:59,2
DA:60,4
DA:61,2
DA:62,2
DA:63,2
DA:64,2
DA:66,14
DA:69,3
DA:70,3
DA:71,3
DA:74,3
DA:75,3
DA:76,3
DA:79,3
DA:80,3
DA:81,3
DA:84,5
DA:85,5
DA:86,3
DA:88,2
DA:90,5
DA:93,2
DA:94,2
DA:95,2
DA:98,2
DA:99,2
DA:100,2
DA:103,3
DA:104,3
DA:105,3
DA:113,2
DA:114,2
DA:115,2
DA:116,2
DA:117,2
DA:120,2
DA:121,2
DA:122,2
DA:123,2
DA:124,2
DA:127,2
DA:128,2
DA:129,2
DA:130,2
DA:131,2
DA:134,2
DA:135,2
DA:136,2
DA:137,2
DA:138,2
DA:141,2
DA:142,2
DA:143,2
DA:144,2
DA:145,2
DA:148,2
DA:149,2
DA:150,2
DA:151,2
DA:152,2
DA:155,2
DA:156,2
DA:157,2
DA:158,2
DA:159,2
DA:162,2
DA:163,2
DA:164,2
DA:165,2
DA:166,2
DA:169,2
DA:170,2
DA:171,2
DA:172,2
DA:173,2
DA:176,2
DA:177,2
DA:178,2
DA:179,2
DA:180,2
DA:183,2
DA:184,2
DA:185,2
DA:186,2
DA:187,2
DA:190,2
DA:191,2
DA:192,2
DA:193,2
DA:196,2
DA:197,2
DA:198,2
DA:199,2
DA:200,2
DA:203,2
DA:204,2
DA:205,2
DA:206,2
DA:209,2
DA:210,2
DA:211,2
DA:212,2
DA:215,2
DA:216,2
DA:217,2
DA:218,2
DA:221,2
DA:222,2
DA:223,2
DA:224,2
DA:225,2
DA:226,2
DA:227,2
DA:228,2
DA:231,14
DA:232,12
DA:233,12
DA:234,12
DA:236,2
DA:239,2
DA:240,2
DA:241,2
DA:242,2
DA:245,2
DA:247,2
DA:248,2
DA:249,2
DA:250,2
BRF:0
BRH:0
LF:151
LH:151
end_of_record